(i__main__
Data
p0
(dp1
S'subreddit_names'
p2
(lp3
S'LegalAdvice'
p4
aS'relationships'
p5
asS'postset'
p6
c__builtin__
set
p7
((lp8
V9vmydf
p9
aV9srtmk
p10
aV9u3ap9
p11
aV9tf23a
p12
aV9vblwa
p13
aV9w7qjp
p14
aV9vnwt5
p15
aV9t4ry4
p16
aV9wm140
p17
aV9uvd1n
p18
aV9vly89
p19
aV9v5p0s
p20
aV9vcrdi
p21
aV9sq9p3
p22
aV9s4loo
p23
aV9tb6n6
p24
aV9vcjt4
p25
aV9ugjz0
p26
aV9wpp8w
p27
aV9shzcv
p28
aV9t2h67
p29
aV9we95t
p30
aV9syj92
p31
aV9v5omg
p32
aV9vn82b
p33
aV9tx3tk
p34
aV9vyfgb
p35
aV9sklkz
p36
aV9sjdyj
p37
aV9v6hm0
p38
aV9s3y2n
p39
aV9wt1zg
p40
aV9vr9mk
p41
aV9v5p03
p42
aV9vdr1s
p43
aV9spglu
p44
aV9smwf8
p45
aV9sqlz2
p46
aV9tsi96
p47
aV9t5o97
p48
aV9sxmcr
p49
aV9uzeom
p50
aV9st465
p51
aV9smh7r
p52
aV9sruyh
p53
aV9to3ft
p54
aV9tbr1y
p55
aV9udcdf
p56
aV9tzqxt
p57
aV9v35xc
p58
aV9tuvpu
p59
aV9smmel
p60
aV9tid2r
p61
aV9si2gi
p62
aV9voad5
p63
aV9twaet
p64
aV9sygam
p65
aV9uemhl
p66
aV9ue4qx
p67
aV9w9k7v
p68
aV9uta25
p69
aV9vwedw
p70
aV9uq3zq
p71
aV9sy4he
p72
aV9viqzo
p73
aV9v51xu
p74
aV9tcyau
p75
aV9tcyar
p76
aV9vykop
p77
aV9tpibk
p78
aV9t1e7l
p79
aV9uh83w
p80
aV9v0iwp
p81
aV9uet61
p82
aV9tuhv6
p83
aV9wqrzf
p84
aV9sylkm
p85
aV9vy3tq
p86
aV9tu7nc
p87
aV9wqrzp
p88
aV9vq6g5
p89
aV9wkyg4
p90
aV9tmhso
p91
aV9spws1
p92
aV9su6iy
p93
aV9u9rnj
p94
aV9vxnzq
p95
aV9ssgkj
p96
aV9v0iw2
p97
aV9vewgv
p98
aV9sgz9c
p99
aV9vg3bt
p100
aV9v1ph0
p101
aV9t9q3n
p102
aV9wpffh
p103
aV9tuzdt
p104
aV9t0omf
p105
aV9sx6t2
p106
aV9ucf8v
p107
aV9vq81e
p108
aV9tvkxd
p109
aV9u556b
p110
aV9uszms
p111
aV9u77tj
p112
aV9t4fpq
p113
aV9ty69i
p114
aV9u4yps
p115
aV9uidd0
p116
aV9t956a
p117
aV9wops5
p118
aV9uzdt6
p119
aV9vtzma
p120
aV9uqblh
p121
aV9sreym
p122
aV9t9tkk
p123
aV9upwwp
p124
aV9vqjf4
p125
aV9syy9n
p126
aV9tgz7e
p127
aV9tjnuq
p128
aV9tszyr
p129
aV9v2mp7
p130
aV9w06o3
p131
aV9wptlu
p132
aV9ut032
p133
aV9tlj7u
p134
aV9w5waa
p135
aV9w673p
p136
aV9vc9lt
p137
aV9w8b13
p138
aV9u3ocf
p139
aV9sttou
p140
aV9v0j47
p141
aV9spayy
p142
aV9wkjne
p143
aV9ukivf
p144
aV9v419x
p145
aV9tuiy7
p146
aV9t2vnj
p147
aV9upl55
p148
aV9tq9mt
p149
aV9w58ui
p150
aV9s3w1i
p151
aV9ua2jh
p152
aV9v2fmr
p153
aV9v6842
p154
aV9v6844
p155
aV9uf6we
p156
aV9t5tz1
p157
aV9vtf4b
p158
aV9tvrke
p159
aV9w7483
p160
aV9vovob
p161
aV9whotc
p162
aV9u7qf5
p163
aV9spkot
p164
aV9u399z
p165
aV9uzchn
p166
aV9tbyry
p167
aV9w301u
p168
aV9tgok4
p169
aV9wpjzr
p170
aV9so70t
p171
aV9u5xyf
p172
aV9u6ov4
p173
aV9te6rg
p174
aV9vcx9b
p175
aV9w6ag2
p176
aV9urazy
p177
aV9w8sgr
p178
aV9sn2pa
p179
aV9vffs8
p180
aV9uz2vy
p181
aV9u50g7
p182
aV9u8arq
p183
aV9u69yo
p184
aV9ue6m4
p185
aV9t2b1t
p186
aV9u69yk
p187
aV9v3fwu
p188
aV9v334k
p189
aV9urpbv
p190
aV9tknc0
p191
aV9tz6yr
p192
aV9tjkol
p193
aV9t44ho
p194
aV9uprx5
p195
aV9v9r65
p196
aV9sngik
p197
aV9t0zvv
p198
aV9vlco9
p199
aV9s5qgo
p200
aV9uib5r
p201
aV9wnbcm
p202
aV9wqj24
p203
aV9vav6z
p204
aV9tetjr
p205
aV9ssw3q
p206
aV9vfrn4
p207
aV9tu8wt
p208
aV9u7bb9
p209
aV9ueemr
p210
aV9swxd3
p211
aV9vfjo3
p212
aV9tob3t
p213
aV9uhnni
p214
aV9w6jkj
p215
aV9wsxkh
p216
aV9ti2nf
p217
aV9vjbl1
p218
aV9wlz8c
p219
aV9tk4tt
p220
aV9v72rd
p221
aV9vmlq4
p222
aV9ue6eo
p223
aV9wp6e2
p224
aV9sn9if
p225
aV9t8w6t
p226
aV9v0tco
p227
aV9v2ks0
p228
aV9sq506
p229
aV9tq6qc
p230
aV9u4b3u
p231
aV9u2a0d
p232
aV9vvtd1
p233
aV9u6y07
p234
aV9wo1cq
p235
aV9tc78z
p236
aV9uifa0
p237
aV9tl5q4
p238
aV9t4ncx
p239
aV9veqkq
p240
aV9u36e0
p241
aV9vf3jo
p242
aV9vah0t
p243
aV9vzch3
p244
aV9t6xtg
p245
aV9socxi
p246
aV9tke0p
p247
aV9uunru
p248
aV9vztuf
p249
aV9tjqby
p250
aV9sxu8j
p251
aV9tgbdk
p252
aV9tglju
p253
aV9tepf5
p254
aV9ufyme
p255
aV9w39xm
p256
aV9uejxv
p257
aV9wqfqt
p258
aV9uis3r
p259
aV9sowqm
p260
aV9t5aiw
p261
aV9vmmul
p262
aV9u6wem
p263
aV9uz2ky
p264
aV9w9and
p265
aV9tm43b
p266
aV9ulhja
p267
aV9vy3o6
p268
aV9t8ird
p269
aV9uyj57
p270
aV9t43yl
p271
aV9vosxq
p272
aV9twe32
p273
aV9tofmr
p274
aV9v42xh
p275
aV9vmb7g
p276
aV9usx6g
p277
aV9t1t1x
p278
aV9tj0xz
p279
aV9w5n0i
p280
aV9s74jd
p281
aV9vnogq
p282
aV9u3s7s
p283
aV9t1wma
p284
aV9tdyr7
p285
aV9u6d9s
p286
aV9wrsyc
p287
aV9vml92
p288
aV9sspbh
p289
aV9vshn2
p290
aV9w99on
p291
aV9si3aj
p292
aV9vaxby
p293
aV9t9z1u
p294
aV9thcoz
p295
aV9t90ai
p296
aV9w930p
p297
aV9tincj
p298
aV9sf0n0
p299
aV9w3xb4
p300
aV9v397a
p301
aV9sevhu
p302
aV9tk999
p303
aV9tjp2i
p304
aV9tv4bz
p305
aV9s6a05
p306
aV9u5e7r
p307
aV9ws22i
p308
aV9us1g1
p309
aV9ve9dc
p310
aV9tltn5
p311
aV9vbe9f
p312
aV9uu4ar
p313
aV9sf1tb
p314
aV9srd56
p315
aV9sgzlk
p316
aV9u36xb
p317
aV9uf7qj
p318
aV9wmp4l
p319
aV9u5nyq
p320
aV9u9w0q
p321
aV9smqnm
p322
aV9tai18
p323
aV9sr7iq
p324
aV9talod
p325
aV9tn31p
p326
aV9tlszi
p327
aV9tdg92
p328
aV9u52de
p329
aV9t8ymf
p330
aV9voeag
p331
aV9swzgy
p332
aV9vqr1o
p333
aV9v6xjs
p334
aV9tby4k
p335
aV9tupxn
p336
aV9vecx9
p337
aV9trmpg
p338
aV9vmskg
p339
aV9suwij
p340
aV9txv0i
p341
aV9shv6z
p342
aV9u3hd5
p343
aV9t1ebo
p344
aV9uhzok
p345
aV9twy8n
p346
aV9u8kom
p347
aV9vd4rl
p348
aV9s4ej7
p349
aV9wolrv
p350
aV9uf16o
p351
aV9t4gpn
p352
aV9uwuof
p353
aV9si8x2
p354
aV9u5yx8
p355
aV9vtuqr
p356
aV9t9ryp
p357
aV9vc84h
p358
aV9tvleq
p359
aV9t66sw
p360
aV9wgmok
p361
aV9u0pp0
p362
aV9w3k40
p363
aV9u3hdl
p364
aV9st1ey
p365
aV9uoqk3
p366
aV9ugheb
p367
aV9woyqs
p368
aV9v0ckr
p369
aV9uly4q
p370
aV9v16t7
p371
aV9tugm4
p372
aV9syv04
p373
aV9wjtcj
p374
aV9wmz7v
p375
aV9u8cob
p376
aV9ugm7k
p377
aV9wr00h
p378
aV9tetwd
p379
aV9vzu4r
p380
aV9u4fnk
p381
aV9vya6w
p382
aV9uutgt
p383
aV9ubkky
p384
aV9tzrrl
p385
aV9vbfqh
p386
aV9ukk1o
p387
aV9vodzl
p388
aV9v0f82
p389
aV9uj5uv
p390
aV9tleid
p391
aV9tucqb
p392
aV9u5u92
p393
aV9uzeps
p394
aV9w9ic1
p395
aV9whn5o
p396
aV9tbxhn
p397
aV9tm77j
p398
aV9unz3u
p399
aV9tad7a
p400
aV9szh8u
p401
aV9uiz5d
p402
aV9u0159
p403
aV9vsibu
p404
aV9sitpc
p405
aV9tlj5c
p406
aV9ublks
p407
aV9ueo8m
p408
aV9ta0oi
p409
aV9udn3a
p410
aV9vuohh
p411
aV9vvc6i
p412
aV9vlfo5
p413
aV9vzvv8
p414
aV9utlam
p415
aV9v4ybc
p416
aV9wrrx7
p417
aV9w6t3k
p418
aV9vm4an
p419
aV9uva5a
p420
aV9vqrri
p421
aV9td8st
p422
aV9vmov4
p423
aV9vtgkt
p424
aV9syhyk
p425
aV9sfs68
p426
aV9uj6ma
p427
aV9whsap
p428
aV9u9ohi
p429
aV9tzoi5
p430
aV9tue6m
p431
aV9s7ng0
p432
aV9v17sx
p433
aV9s41sc
p434
aV9wqz0y
p435
aV9toz3t
p436
aV9tgwjx
p437
aV9uunie
p438
aV9vvu6s
p439
aV9stll9
p440
aV9t4utm
p441
aV9vzdk9
p442
aV9t2cnj
p443
aV9s7et6
p444
aV9tgplb
p445
aV9uk791
p446
aV9vvjcb
p447
aV9vqulc
p448
aV9shzyn
p449
aV9uol1o
p450
aV9tb1w0
p451
aV9w8ncq
p452
aV9sdgvs
p453
aV9skalt
p454
aV9vvbrh
p455
aV9v09s7
p456
aV9vvz9l
p457
aV9tkb4d
p458
aV9vhz3t
p459
aV9tghly
p460
aV9vopsq
p461
aV9soe1i
p462
aV9tx4qj
p463
aV9t379c
p464
aV9vwbyn
p465
aV9v2xas
p466
aV9uee4i
p467
aV9uu8er
p468
aV9wsfsz
p469
aV9vy76a
p470
aV9w1e1b
p471
aV9uzala
p472
aV9t97bn
p473
aV9w3ggc
p474
aV9t0tvp
p475
aV9w17fq
p476
aV9whbdt
p477
aV9sx8i7
p478
aV9soc90
p479
aV9vb2c9
p480
aV9vz94x
p481
aV9vnlm7
p482
aV9tyzmn
p483
aV9tjkm5
p484
aV9t3m4j
p485
aV9vy2jr
p486
aV9vcz1s
p487
aV9tu3s0
p488
aV9uxbey
p489
aV9szylb
p490
aV9vva9r
p491
aV9u63qp
p492
aV9tnktl
p493
aV9v5n8k
p494
aV9u7yqu
p495
aV9vtodw
p496
aV9synfj
p497
aV9t2khk
p498
aV9wseux
p499
aV9u61z5
p500
aV9tj75e
p501
aV9ucug1
p502
aV9vxzu7
p503
aV9vphuf
p504
aV9w6ju2
p505
aV9u6xyl
p506
aV9tgfrh
p507
aV9tdrbo
p508
aV9tkkqo
p509
aV9tddxl
p510
aV9uxpgq
p511
aV9vduu5
p512
aV9triio
p513
aV9wqmjn
p514
aV9tjwha
p515
aV9u4roc
p516
aV9vzq52
p517
aV9vemyh
p518
aV9uupv2
p519
aV9w9fid
p520
aV9uqovv
p521
aV9tmpko
p522
aV9tukl0
p523
aV9ujcgv
p524
aV9u7f7q
p525
aV9wsvmi
p526
aV9uqovh
p527
aV9u5z9w
p528
aV9vp5r8
p529
aV9texxm
p530
aV9udrv3
p531
aV9vqdk7
p532
aV9t7voh
p533
aV9t7vom
p534
aV9tpuyh
p535
aV9szw0d
p536
aV9sssnb
p537
aV9upj2r
p538
aV9whv3e
p539
aV9vdb5f
p540
aV9w5jwz
p541
aV9s75v6
p542
aV9w7qnt
p543
aV9u0hd5
p544
aV9vw3lp
p545
aV9tw8v9
p546
aV9ur0xr
p547
aV9w1273
p548
aV9w9kfw
p549
aV9s1eaz
p550
aV9tm01k
p551
aV9v1b1a
p552
aV9uu8e4
p553
aV9t590u
p554
aV9wdquo
p555
aV9vgyym
p556
aV9uqccu
p557
aV9t8a5f
p558
aV9v5pca
p559
aV9tw8vm
p560
aV9w7mr4
p561
aV9u5due
p562
aV9vmd7q
p563
aV9vldth
p564
aV9utdj2
p565
aV9t3kn6
p566
aV9u5okz
p567
aV9s5pnk
p568
aV9uf0m8
p569
aV9vqq83
p570
aV9vcjxa
p571
aV9v33n1
p572
aV9w22n8
p573
aV9ta4po
p574
aV9tc9c8
p575
aV9um4aq
p576
aV9u79vo
p577
aV9vu1sw
p578
aV9vse88
p579
aV9txgfa
p580
aV9w01gx
p581
aV9vj0fo
p582
aV9tc0ur
p583
aV9wqkyo
p584
aV9w7qwd
p585
aV9vaeom
p586
aV9wnjru
p587
aV9tal60
p588
aV9t4xcv
p589
aV9w7oxh
p590
aV9ue4lr
p591
aV9u8alc
p592
aV9tcf4p
p593
aV9ue4lz
p594
aV9vckzy
p595
aV9vvcp5
p596
aV9ssc6b
p597
aV9w01g0
p598
aV9uokh7
p599
aV9vj8vg
p600
aV9vqfgd
p601
aV9v8zd0
p602
aV9w5wx1
p603
aV9uhv82
p604
aV9tupzc
p605
aV9w1l7z
p606
aV9uggbw
p607
aV9vj6tk
p608
aV9s7eik
p609
aV9t12i2
p610
aV9t3aa1
p611
aV9ue0h0
p612
aV9shvc8
p613
aV9tcarq
p614
aV9t5qi7
p615
aV9sob7c
p616
aV9t0ef2
p617
aV9w02oo
p618
aV9ttbev
p619
aV9t4ws8
p620
aV9vt932
p621
aV9vdafl
p622
aV9u5qzi
p623
aV9vaisv
p624
aV9vcmpg
p625
aV9tx07r
p626
aV9ury54
p627
aV9vozjp
p628
aV9v5ex2
p629
aV9upvsi
p630
aV9vxdqi
p631
aV9vxdqb
p632
aV9vxdqg
p633
aV9vcthv
p634
aV9wp9l8
p635
aV9vhbg1
p636
aV9vwbbv
p637
aV9tt00k
p638
aV9s54dc
p639
aV9uj5s9
p640
aV9veojr
p641
aV9w80mo
p642
aV9u3feo
p643
aV9u5s5d
p644
aV9v4lte
p645
aV9wil12
p646
aV9v4ltm
p647
aV9wrs4x
p648
aV9tcw2d
p649
aV9ub9yx
p650
aV9tu71q
p651
aV9vgfd2
p652
aV9ug63q
p653
aV9u7dav
p654
aV9v84c1
p655
aV9upwkd
p656
aV9tlise
p657
aV9vplds
p658
aV9u4fh8
p659
aV9v6h92
p660
aV9v6h93
p661
aV9u7vxy
p662
aV9srjuh
p663
aV9tcc4h
p664
aV9s1p56
p665
aV9sqokl
p666
aV9t6xm2
p667
aV9vf9db
p668
aV9uqzoo
p669
aV9u3bq7
p670
aV9tlm0g
p671
aV9vcfai
p672
aV9ud8bi
p673
aV9s2lnt
p674
aV9vpv0c
p675
aV9vkfco
p676
aV9vr5fe
p677
aV9utlgg
p678
aV9stts8
p679
aV9vxftq
p680
aV9v0cim
p681
aV9si1jf
p682
aV9tpxeg
p683
aV9w7y6m
p684
aV9w3hdb
p685
aV9vlsvi
p686
aV9u3csr
p687
aV9w9tf0
p688
aV9wh7ch
p689
aV9u6oze
p690
aV9wkgnp
p691
aV9wsqhr
p692
aV9w4vu9
p693
aV9w4c6g
p694
aV9vxtgx
p695
aV9v2ycz
p696
aV9wi7qq
p697
aV9twbdq
p698
aV9w7ak5
p699
aV9w8gw7
p700
aV9wosi8
p701
aV9unzj2
p702
aV9tb9jt
p703
aV9tzeez
p704
aV9vbuor
p705
aV9skanm
p706
aV9sk6wu
p707
aV9vyflq
p708
aV9u0s0b
p709
aV9v2tgp
p710
aV9uqok3
p711
aV9wacx5
p712
aV9rw7oi
p713
aV9u4v0j
p714
aV9vl7ax
p715
aV9szmj3
p716
aV9wkk19
p717
aV9w8ae0
p718
aV9tvibu
p719
aV9w8gwg
p720
aV9vxhfw
p721
aV9trn1q
p722
aV9sptr4
p723
aV9uqnkv
p724
aV9wsfua
p725
aV9v1j0k
p726
aV9uc5g6
p727
aV9u69ez
p728
aV9sl9qg
p729
aV9v6bbi
p730
aV9vdvwj
p731
aV9tqdt5
p732
aV9tvuga
p733
aV9wka5r
p734
aV9w4oya
p735
aV9wloq7
p736
aV9tylfj
p737
aV9trakk
p738
aV9tdc4g
p739
aV9w8m6c
p740
aV9trdgu
p741
aV9sngec
p742
aV9uxgg4
p743
aV9tlnzd
p744
aV9wjd85
p745
aV9upkr9
p746
aV9w93tg
p747
aV9ta9vo
p748
aV9w6gy4
p749
aV9wqwqp
p750
aV9uv3ah
p751
aV9stetw
p752
aV9va42p
p753
aV9va767
p754
aV9wsnet
p755
aV9to4gw
p756
aV9vj767
p757
aV9turu2
p758
aV9vfmgj
p759
aV9sh1vv
p760
aV9wng9b
p761
aV9tdnm6
p762
aV9sutpd
p763
aV9ttgh8
p764
aV9s6yod
p765
aV9w9j41
p766
aV9stut5
p767
aV9tnqho
p768
aV9tnkrq
p769
aV9wqc3f
p770
aV9u5wiu
p771
aV9wpugs
p772
aV9uwwdm
p773
aV9vcn9t
p774
aV9uirbo
p775
aV9vbldp
p776
aV9vphsm
p777
aV9tipdn
p778
aV9ugp5i
p779
aV9sm10h
p780
aV9uqn6d
p781
aV9s50w4
p782
aV9vnv44
p783
aV9tkowk
p784
aV9vp3bs
p785
aV9vxhxd
p786
aV9wht28
p787
aV9u4uwt
p788
aV9st4t7
p789
aV9v0yo4
p790
aV9s746u
p791
aV9va7ai
p792
aV9tj3oh
p793
aV9s58gc
p794
aV9tahou
p795
aV9shkjd
p796
aV9w9otd
p797
aV9txmat
p798
aV9szw61
p799
aV9tw0de
p800
aV9tw0db
p801
aV9w7k9h
p802
aV9vw2dl
p803
aV9tmhlh
p804
aV9sph4y
p805
aV9vdb71
p806
aV9vr3e3
p807
aV9vq1di
p808
aV9urkn3
p809
aV9tlw59
p810
aV9syp3v
p811
aV9uacgr
p812
aV9w8kv8
p813
aV9wspgm
p814
aV9u35a0
p815
aV9slt05
p816
aV9surjt
p817
aV9t36ga
p818
aV9tyw20
p819
aV9uv1j8
p820
aV9wblqu
p821
aV9wgbjt
p822
aV9v4ck2
p823
aV9w36zm
p824
aV9t2re2
p825
aV9sqerp
p826
aV9s6vvx
p827
aV9vade7
p828
aV9ws0em
p829
aV9vnpna
p830
aV9u4d7j
p831
aV9whb24
p832
aV9t0ys6
p833
aV9tok7v
p834
aV9vgkq0
p835
aV9t51ii
p836
aV9vd4zn
p837
aV9teon7
p838
aV9v23hq
p839
aV9uibaf
p840
aV9ws8uc
p841
aV9u7agm
p842
aV9vm6ba
p843
aV9u8w43
p844
aV9ues7s
p845
aV9u1ke2
p846
aV9vdjjr
p847
aV9t0ysm
p848
aV9ukrfz
p849
aV9w6v03
p850
aV9uhuj9
p851
aV9tl85s
p852
aV9uzlma
p853
aV9utyoe
p854
aV9w3p9l
p855
aV9ugs3w
p856
aV9ss1bu
p857
aV9sy1hp
p858
aV9uqqu3
p859
aV9t1ctf
p860
aV9w36lo
p861
aV9tmn26
p862
aV9u6as8
p863
aV9tc7gh
p864
aV9sztbx
p865
aV9tyh8i
p866
aV9wpzcc
p867
aV9wsjtz
p868
aV9wq6tv
p869
aV9twdg3
p870
aV9txb2d
p871
aV9t8rcz
p872
aV9vzqkf
p873
aV9s2zby
p874
aV9vh6vk
p875
aV9th3wr
p876
aV9vmi8q
p877
aV9u6asc
p878
aV9rzz2o
p879
aV9toly7
p880
aV9s4dhw
p881
aV9u58nj
p882
aV9tlo7s
p883
aV9tmqr5
p884
aV9sg8cq
p885
aV9u6eof
p886
aV9wnsk7
p887
aV9vl7t2
p888
aV9uf8b8
p889
aV9umb7b
p890
aV9s2tlq
p891
aV9t56ex
p892
aV9uuxg9
p893
aV9v18f6
p894
aV9spjnb
p895
aV9tdb80
p896
aV9vpb57
p897
aV9tfeg4
p898
aV9ssgmm
p899
aV9sx5h8
p900
aV9vgbff
p901
aV9vevgk
p902
aV9tksvp
p903
aV9ur2f1
p904
aV9tkedh
p905
aV9sndd5
p906
aV9w1b31
p907
aV9t0hso
p908
aV9w7vuj
p909
aV9wef5b
p910
aV9v5i8b
p911
aV9snk21
p912
aV9wmdj0
p913
aV9w6inj
p914
aV9t89w1
p915
aV9v5ccq
p916
aV9tffkz
p917
aV9v45fi
p918
aV9tx018
p919
aV9v45fl
p920
aV9unkt5
p921
aV9ua61h
p922
aV9uz9b7
p923
aV9ta7k2
p924
aV9sjgeb
p925
aV9wrtjs
p926
aV9vy9pc
p927
aV9vycj3
p928
aV9ssqpd
p929
aV9ti4q2
p930
aV9vaj3w
p931
aV9s6p02
p932
aV9vzrfm
p933
aV9u9luo
p934
aV9w05ip
p935
aV9t3fcb
p936
aV9wr5nc
p937
aV9vz603
p938
aV9szlwo
p939
aV9vh7qc
p940
aV9tym1y
p941
aV9w8ufd
p942
aV9tugij
p943
aV9vmapc
p944
aV9tih14
p945
aV9tvsbb
p946
aV9u1tlf
p947
aV9tjghv
p948
aV9wptby
p949
aV9w6c8a
p950
aV9sq7hw
p951
aV9uuc5r
p952
aV9tk1uq
p953
aV9u2dc7
p954
aV9s30zx
p955
aV9s7cfe
p956
aV9w8mg2
p957
aV9s6bgm
p958
aV9wdmsb
p959
aV9v5erj
p960
aV9ve98n
p961
aV9t3iqs
p962
aV9tf0kv
p963
aV9urza3
p964
aV9u25v4
p965
aV9wk83p
p966
aV9sgxax
p967
aV9tvacy
p968
aV9t2pf8
p969
aV9w6fxa
p970
aV9snoqe
p971
aV9vocgm
p972
aV9tov1m
p973
aV9ucn2l
p974
aV9uxcql
p975
aV9uysch
p976
aV9veb2c
p977
aV9uk6y4
p978
aV9v5vt7
p979
aV9sdz9p
p980
aV9wlmum
p981
aV9v4qu7
p982
aV9tvdzq
p983
aV9uaqzg
p984
aV9ttm8y
p985
aV9wsyj8
p986
aV9uqwi2
p987
aV9ws4rz
p988
aV9uez9e
p989
aV9wr1b6
p990
aV9vkj6w
p991
aV9w5q62
p992
aV9u45wb
p993
aV9t7i4k
p994
aV9v1fqc
p995
aV9vm5if
p996
aV9u1il3
p997
aV9stvgn
p998
aV9w4m26
p999
aV9vyfnj
p1000
aV9szxkr
p1001
aV9tvo3u
p1002
aV9u2ekl
p1003
aV9t1h60
p1004
aV9u983e
p1005
aV9uk3ac
p1006
aV9v0xyr
p1007
aV9vyc9r
p1008
aV9t9kan
p1009
aV9spbs4
p1010
aV9tcibo
p1011
aV9tfhzj
p1012
aV9tidru
p1013
aV9wip23
p1014
aV9tgtdz
p1015
aV9wrhsr
p1016
aV9u7l8j
p1017
aV9tl7yp
p1018
aV9u3d5t
p1019
aV9u69ct
p1020
aV9txn9x
p1021
aV9vb2ok
p1022
aV9u0usf
p1023
aV9sz8op
p1024
aV9vuu59
p1025
aV9wriu7
p1026
aV9tz8mx
p1027
aV9vtwh3
p1028
aV9uv81n
p1029
aV9t2hvg
p1030
aV9t46x0
p1031
aV9vxkrv
p1032
aV9tdkqa
p1033
aV9sngcj
p1034
aV9w3tm6
p1035
aV9slpad
p1036
aV9ueecx
p1037
aV9v40mt
p1038
aV9wsq7u
p1039
aV9vm9m7
p1040
aV9tzjbv
p1041
aV9s4i37
p1042
aV9wt39o
p1043
aV9tme4m
p1044
aV9wejaj
p1045
aV9stezk
p1046
aV9vg2b6
p1047
aV9wa8sk
p1048
aV9tny5z
p1049
aV9v02qm
p1050
aV9umazm
p1051
aV9tc8lu
p1052
aV9u118o
p1053
aV9st4vq
p1054
aV9vavap
p1055
aV9vk4is
p1056
aV9wn7f2
p1057
aV9vzcfn
p1058
aV9tie0c
p1059
aV9wjjfz
p1060
aV9s6ngb
p1061
aV9w74j1
p1062
aV9wot8f
p1063
aV9tplcg
p1064
aV9tplcn
p1065
aV9v5e39
p1066
aV9t6srx
p1067
aV9uixra
p1068
aV9tvnek
p1069
aV9smo7y
p1070
aV9taoi5
p1071
aV9s744k
p1072
aV9w7rdp
p1073
aV9uud3u
p1074
aV9ve405
p1075
aV9vore4
p1076
aV9tsr7e
p1077
aV9wi4jh
p1078
aV9vu3pa
p1079
aV9tpeu4
p1080
aV9u6rw5
p1081
aV9t7vc8
p1082
aV9ws9k3
p1083
aV9tm941
p1084
aV9u74a2
p1085
aV9tm946
p1086
aV9u3ri3
p1087
aV9t2lj9
p1088
aV9w3yby
p1089
aV9ve8au
p1090
aV9v458y
p1091
aV9ukuno
p1092
aV9tl3ev
p1093
aV9tcq16
p1094
aV9vctcl
p1095
aV9tkg0r
p1096
aV9sz8hj
p1097
aV9vsgjl
p1098
aV9vx8u4
p1099
aV9u6rwv
p1100
aV9tht66
p1101
aV9vh5ph
p1102
aV9vaf4t
p1103
aV9uhrgw
p1104
aV9u6wk6
p1105
aV9vpz5i
p1106
aV9vn4hp
p1107
aV9u0rsn
p1108
aV9vvr2k
p1109
aV9wixpc
p1110
aV9tdu6v
p1111
aV9tb3s0
p1112
aV9wrp6i
p1113
aV9t3c5l
p1114
aV9t7he1
p1115
aV9ue9k8
p1116
aV9t2j8m
p1117
aV9tbvmo
p1118
aV9w4bql
p1119
aV9vax8t
p1120
aV9w2zn3
p1121
aV9s74ly
p1122
aV9v21pg
p1123
aV9vnqbr
p1124
aV9t3tg3
p1125
aV9tlf0h
p1126
aV9ud50w
p1127
aV9v2zfg
p1128
aV9tae1o
p1129
aV9vmd3q
p1130
aV9vlgng
p1131
aV9uklep
p1132
aV9upgmv
p1133
aV9tytt6
p1134
aV9uzbqw
p1135
aV9t8ady
p1136
aV9vc3tt
p1137
aV9w47za
p1138
aV9uyqno
p1139
aV9sirij
p1140
aV9wt62s
p1141
aV9w8c5n
p1142
aV9si32r
p1143
aV9weqqp
p1144
aV9wszyn
p1145
aV9vneo5
p1146
aV9ta4te
p1147
aV9uzegs
p1148
aV9tzcz6
p1149
aV9unr6l
p1150
aV9sn97f
p1151
aV9tq7h6
p1152
aV9wszye
p1153
aV9stn30
p1154
aV9tnlzs
p1155
aV9wpzab
p1156
aV9ss997
p1157
aV9t4n8p
p1158
aV9vltpm
p1159
aV9ss999
p1160
aV9us880
p1161
aV9ug5w5
p1162
aV9wna7n
p1163
aV9uhju5
p1164
aV9wkkm8
p1165
aV9upng7
p1166
aV9vwnlj
p1167
aV9t89ua
p1168
aV9uy4kq
p1169
aV9twzlc
p1170
aV9t19g0
p1171
aV9sxwdy
p1172
aV9uiyqw
p1173
aV9vvbzb
p1174
aV9vykwj
p1175
aV9vp9wk
p1176
aV9vxok6
p1177
aV9ua0a8
p1178
aV9wfeen
p1179
aV9tu7fx
p1180
aV9uperl
p1181
aV9uy9pc
p1182
aV9u1y65
p1183
aV9tl2j3
p1184
aV9uftqf
p1185
aV9u5h8t
p1186
aV9vvp3c
p1187
aV9uqjtg
p1188
aV9sj31l
p1189
aV9wn3ua
p1190
aV9vxokz
p1191
aV9u97l9
p1192
aV9shluk
p1193
aV9sobdz
p1194
aV9tvzto
p1195
aV9tpmfi
p1196
aV9tjdhl
p1197
aV9uhzu9
p1198
aV9tf36e
p1199
aV9u140r
p1200
aV9tw750
p1201
aV9tvztw
p1202
aV9tbtf0
p1203
aV9wpxhx
p1204
aV9v7l5c
p1205
aV9tkijh
p1206
aV9tuzlk
p1207
aV9v7mk4
p1208
aV9v1vn8
p1209
aV9vq5qp
p1210
aV9t1b44
p1211
aV9uuj4a
p1212
aV9sldjv
p1213
aV9st0g7
p1214
aV9twmqg
p1215
aV9t8v0v
p1216
aV9u6t1f
p1217
aV9viv6u
p1218
aV9tk67m
p1219
aV9vhra7
p1220
aV9skk02
p1221
aV9td6y5
p1222
aV9wrs8k
p1223
aV9taeyx
p1224
aV9u5j6n
p1225
aV9s5yby
p1226
aV9utdzj
p1227
aV9ui43o
p1228
aV9sycea
p1229
aV9utkf7
p1230
aV9vonz5
p1231
aV9urzop
p1232
aV9v4wa8
p1233
aV9vmoxg
p1234
aV9sjdbr
p1235
aV9u25th
p1236
aV9vkfmg
p1237
aV9tsa3v
p1238
aV9v3njp
p1239
aV9vfk5b
p1240
aV9vle95
p1241
aV9vz8l4
p1242
aV9u66hu
p1243
aV9tev0r
p1244
aV9v2cvd
p1245
aV9tag2p
p1246
aV9uzx5k
p1247
aV9s3sxa
p1248
aV9vh3cy
p1249
aV9wo5wv
p1250
aV9uhyli
p1251
aV9upy0d
p1252
aV9wrkqx
p1253
aV9twzqh
p1254
aV9uptft
p1255
aV9vmm5o
p1256
aV9txxwz
p1257
aV9tmoyc
p1258
aV9tjqum
p1259
aV9vzvx4
p1260
aV9un9vt
p1261
aV9v09yk
p1262
aV9swybp
p1263
aV9ueiiy
p1264
aV9uhbjc
p1265
aV9wmmke
p1266
aV9wjopg
p1267
aV9ts6y2
p1268
aV9s4jyv
p1269
aV9uejme
p1270
aV9wkeps
p1271
aV9w3ukl
p1272
aV9u9bah
p1273
aV9woxok
p1274
aV9tcidc
p1275
aV9v60bd
p1276
aV9v6fzo
p1277
aV9wirau
p1278
aV9uo3pa
p1279
aV9u9s35
p1280
aV9um2rf
p1281
aV9vhdvy
p1282
aV9t97hd
p1283
aV9tfxow
p1284
aV9tx4wa
p1285
aV9ukdpc
p1286
aV9t0s9s
p1287
aV9w285e
p1288
aV9voa5o
p1289
aV9uz459
p1290
aV9ugeis
p1291
aV9tml7c
p1292
aV9tzgs8
p1293
aV9vlq0e
p1294
aV9ueeet
p1295
aV9t3tx9
p1296
aV9vnpw0
p1297
aV9uhfv1
p1298
aV9ssz2w
p1299
aV9tx6qc
p1300
aV9ta9rt
p1301
aV9tm6yh
p1302
aV9vagx3
p1303
aV9w9gkv
p1304
aV9worqz
p1305
aV9v6bf1
p1306
aV9sl4m0
p1307
aV9tlnfi
p1308
aV9u7569
p1309
aV9thcrr
p1310
aV9urp51
p1311
aV9trgya
p1312
aV9u2xrc
p1313
aV9vo2ep
p1314
aV9vof22
p1315
aV9wrqf4
p1316
aV9t7s5q
p1317
aV9sevuw
p1318
aV9uzh8c
p1319
aV9twixw
p1320
aV9us9zz
p1321
aV9usl9y
p1322
aV9vp3m9
p1323
aV9vy87v
p1324
aV9uf7j8
p1325
aV9v1mzk
p1326
aV9v247h
p1327
aV9uht2r
p1328
aV9t308r
p1329
aV9tqc6u
p1330
aV9ubt89
p1331
aV9t2t33
p1332
aV9tw923
p1333
aV9ssf85
p1334
aV9sn9q1
p1335
aV9t07x6
p1336
aV9txumf
p1337
aV9ty8wl
p1338
aV9u4usb
p1339
aV9u3dbk
p1340
aV9vbbbh
p1341
aV9te2ns
p1342
aV9sggs7
p1343
aV9uqu5j
p1344
aV9uf7ju
p1345
aV9uld6w
p1346
aV9uww3q
p1347
aV9vij71
p1348
aV9w4b7s
p1349
aV9u8wph
p1350
aV9ta1bh
p1351
aV9vlf0s
p1352
aV9sd2ks
p1353
aV9u69ak
p1354
aV9tdrd9
p1355
aV9u6aly
p1356
aV9ttq10
p1357
aV9t3089
p1358
aV9sq3qx
p1359
aV9vl4ir
p1360
aV9w9lbh
p1361
aV9uhoyy
p1362
aV9us6rr
p1363
aV9tahkw
p1364
aV9vnqpr
p1365
aV9v370j
p1366
aV9ul4bv
p1367
aV9siby0
p1368
aV9u2pou
p1369
aV9s79im
p1370
aV9vfs8m
p1371
aV9t2ray
p1372
aV9upyxo
p1373
aV9wraec
p1374
aV9ugdw6
p1375
aV9upyxv
p1376
aV9vjxrb
p1377
aV9tu07p
p1378
aV9t1rrv
p1379
aV9sur19
p1380
aV9tcckl
p1381
aV9v1ezp
p1382
aV9usgoy
p1383
aV9uh0fl
p1384
aV9ugbon
p1385
aV9vq1x5
p1386
aV9v9hcm
p1387
aV9so2ed
p1388
aV9spgre
p1389
aV9u6bzf
p1390
aV9uktpp
p1391
aV9sne1a
p1392
aV9sjto0
p1393
aV9sz93w
p1394
aV9v3ksy
p1395
aV9w1pkv
p1396
aV9sna68
p1397
aV9u5b72
p1398
aV9u1g6e
p1399
aV9vp263
p1400
aV9sh3km
p1401
aV9tixvj
p1402
aV9wosfa
p1403
aV9vb70p
p1404
aV9vgoqj
p1405
aV9u433z
p1406
aV9we62k
p1407
aV9tj3tb
p1408
aV9tbtyr
p1409
aV9u8w84
p1410
aV9uh8ql
p1411
aV9vdi4v
p1412
aV9ueonu
p1413
aV9u1lu6
p1414
aV9sszzz
p1415
aV9torv5
p1416
aV9v71oe
p1417
aV9vmd10
p1418
aV9upud6
p1419
aV9t369c
p1420
aV9sk4pa
p1421
aV9t10yz
p1422
aV9so57x
p1423
aV9ta349
p1424
aV9s64tl
p1425
aV9tf968
p1426
aV9t2fkq
p1427
aV9wqke7
p1428
aV9tp5pu
p1429
aV9vg4co
p1430
aV9uu4y7
p1431
aV9v139c
p1432
aV9uok9e
p1433
aV9w69vd
p1434
aV9tbgx2
p1435
aV9uop6o
p1436
aV9ss204
p1437
aV9tuwfy
p1438
aV9s6inb
p1439
aV9twudf
p1440
aV9vq02k
p1441
aV9wqx6l
p1442
aV9vugls
p1443
aV9u868c
p1444
aV9w5gvi
p1445
aV9wsr5h
p1446
aV9wjnqp
p1447
aV9v3jlk
p1448
aV9vqbal
p1449
aV9sj9dq
p1450
aV9u3mz3
p1451
aV9whskc
p1452
aV9sg84o
p1453
aV9sn5ro
p1454
aV9wdzvp
p1455
aV9tyzf7
p1456
aV9tqhpk
p1457
aV9tcxk2
p1458
aV9tc4ck
p1459
aV9vfy7e
p1460
aV9uh1m7
p1461
aV9szu08
p1462
aV9vyd72
p1463
aV9vz0kj
p1464
aV9uxtta
p1465
aV9u902d
p1466
aV9w9tqt
p1467
aV9soph8
p1468
aV9uaqa4
p1469
aV9v47x2
p1470
aV9s4gt2
p1471
aV9vn9no
p1472
aV9sxu1m
p1473
aV9s0gib
p1474
aV9tnema
p1475
aV9tgbxo
p1476
aV9sffx6
p1477
aV9uuexs
p1478
aV9tns6d
p1479
aV9vui6k
p1480
aV9tfecf
p1481
aV9v5gcf
p1482
aV9w5fpx
p1483
aV9uqkn2
p1484
aV9uooz2
p1485
aV9vz64g
p1486
aV9ss7mc
p1487
aV9uefks
p1488
aV9vv0kl
p1489
aV9v4gxj
p1490
aV9vwblg
p1491
aV9t13sa
p1492
aV9u7vb2
p1493
aV9v1iew
p1494
aV9vp1an
p1495
aV9t13sv
p1496
aV9ugmb6
p1497
aV9u4yjj
p1498
aV9wg3ux
p1499
aV9sw321
p1500
aV9so8v1
p1501
aV9u2uty
p1502
aV9uzxb0
p1503
aV9ttx75
p1504
aV9ssdsn
p1505
aV9uek9x
p1506
aV9vq7ux
p1507
aV9u3c1y
p1508
aV9strg5
p1509
aV9trob4
p1510
aV9v2cp8
p1511
aV9tb1py
p1512
aV9vc9bi
p1513
aV9uso2e
p1514
aV9w4313
p1515
aV9sry20
p1516
aV9t5t7k
p1517
aV9ug2ly
p1518
aV9sp24u
p1519
aV9vkfmv
p1520
aV9vxho6
p1521
aV9sp9e0
p1522
aV9w7otg
p1523
aV9uxorz
p1524
aV9w7jla
p1525
aV9tag4h
p1526
aV9wrzpu
p1527
aV9toauz
p1528
aV9stucw
p1529
aV9tr5yf
p1530
aV9wab8r
p1531
aV9ug2l2
p1532
aV9tk4a1
p1533
aV9t6pw5
p1534
aV9uujmm
p1535
aV9uift1
p1536
aV9vcvxe
p1537
aV9wfu6r
p1538
aV9uy0e7
p1539
aV9wjw38
p1540
aV9ujcpy
p1541
aV9u0r77
p1542
aV9u0ykw
p1543
aV9upy2a
p1544
aV9sly1y
p1545
aV9t0udq
p1546
aV9vtwyt
p1547
aV9vp693
p1548
aV9t57zh
p1549
aV9tg4bp
p1550
aV9tcn7b
p1551
aV9spbob
p1552
aV9u9872
p1553
aV9tp3s2
p1554
aV9stvci
p1555
aV9uhanc
p1556
aV9slf6r
p1557
aV9vmuql
p1558
aV9wswxw
p1559
aV9vkv0t
p1560
aV9tw2ov
p1561
aV9v24qp
p1562
aV9so90c
p1563
aV9w7aav
p1564
aV9txodw
p1565
aV9ss37p
p1566
aV9v5ym3
p1567
aV9wpydq
p1568
aV9sss1r
p1569
aV9vcu26
p1570
aV9w90gn
p1571
aV9tepf1
p1572
aV9wsuv7
p1573
aV9vxo1w
p1574
aV9u62z5
p1575
aV9vbz7q
p1576
aV9th32d
p1577
aV9tn9sx
p1578
aV9t4srr
p1579
aV9t44bg
p1580
aV9sp3xs
p1581
aV9vc2sb
p1582
aV9tyqo8
p1583
aV9t44bq
p1584
aV9w0bew
p1585
aV9vnpyc
p1586
aV9tz6sv
p1587
aV9urj5o
p1588
aV9sjdhn
p1589
aV9vjqgz
p1590
aV9sjdhf
p1591
aV9u6ijl
p1592
aV9vpyr7
p1593
aV9vxuh3
p1594
aV9ssw9q
p1595
aV9t9cyq
p1596
aV9tkqkw
p1597
aV9tegan
p1598
aV9w44oq
p1599
aV9v0rsd
p1600
aV9w47ce
p1601
aV9tnxug
p1602
aV9uuia5
p1603
aV9st54y
p1604
aV9wi29x
p1605
aV9uhw6g
p1606
aV9vg2n3
p1607
aV9v9l0s
p1608
aV9svyzk
p1609
aV9vzudg
p1610
aV9vcpum
p1611
aV9w9xxs
p1612
aV9vwkwy
p1613
aV9susj4
p1614
aV9txio2
p1615
aV9sutvs
p1616
aV9twizq
p1617
aV9tm0q8
p1618
aV9vwcga
p1619
aV9tz1sc
p1620
aV9teikg
p1621
aV9w57wz
p1622
aV9uf73v
p1623
aV9un75y
p1624
aV9twl6l
p1625
aV9tudxi
p1626
aV9vjoxb
p1627
aV9u4bx1
p1628
aV9spufm
p1629
aV9ude20
p1630
aV9tl7u0
p1631
aV9tlmbp
p1632
aV9vw9pv
p1633
aV9w67ar
p1634
aV9t4cqh
p1635
aV9wjdgw
p1636
aV9teik6
p1637
aV9ufoie
p1638
aV9v8wz5
p1639
aV9tzwqs
p1640
aV9uexvb
p1641
aV9vdtgy
p1642
aV9ryoib
p1643
aV9vvlin
p1644
aV9s3q1s
p1645
aV9vb5gb
p1646
aV9vqfzd
p1647
aV9uolwd
p1648
aV9vc4as
p1649
aV9twv44
p1650
aV9tlmb4
p1651
aV9uj44u
p1652
aV9w9f7l
p1653
aV9sysmg
p1654
aV9v4die
p1655
aV9s5ntq
p1656
aV9uuzhn
p1657
aV9shkpf
p1658
aV9vqvz2
p1659
aV9vnbxr
p1660
aV9s599c
p1661
aV9szwe5
p1662
aV9uur7z
p1663
aV9wspaj
p1664
aV9u05yi
p1665
aV9vj39p
p1666
aV9tomtx
p1667
aV9t6wbp
p1668
aV9w3q76
p1669
aV9ugbmp
p1670
aV9umctp
p1671
aV9uum25
p1672
aV9wngfw
p1673
aV9sqm3n
p1674
aV9ufcm2
p1675
aV9wp1q9
p1676
aV9t935o
p1677
aV9w02z4
p1678
aV9snugi
p1679
aV9t1hzd
p1680
aV9tbzm4
p1681
aV9tcs3e
p1682
aV9u7hgd
p1683
aV9ws7yf
p1684
aV9ty9mn
p1685
aV9t423a
p1686
aV9u54az
p1687
aV9s6wgb
p1688
aV9sj0sp
p1689
aV9t4wff
p1690
aV9u3ysq
p1691
aV9vry7r
p1692
aV9tf8v0
p1693
aV9ttj4a
p1694
aV9tvtwm
p1695
aV9vgjos
p1696
aV9w8fc1
p1697
aV9vr7ou
p1698
aV9u70q2
p1699
aV9tbuex
p1700
aV9ujqqg
p1701
aV9w33xh
p1702
aV9tfwrw
p1703
aV9so4u3
p1704
aV9v694p
p1705
aV9spopp
p1706
aV9vyg26
p1707
aV9vn0xa
p1708
aV9v16i4
p1709
aV9webjh
p1710
aV9ueqdv
p1711
aV9wj40l
p1712
aV9v6jwj
p1713
aV9t6lvm
p1714
aV9veuq7
p1715
aV9ttkzb
p1716
aV9t9bjz
p1717
aV9ss5tm
p1718
aV9vdi6q
p1719
aV9who1k
p1720
aV9vo45t
p1721
aV9w4t01
p1722
aV9w1gpj
p1723
aV9stoof
p1724
aV9wolm7
p1725
aV9ve0us
p1726
aV9ug6s4
p1727
aV9uh7bj
p1728
aV9vesk3
p1729
aV9uftae
p1730
aV9swzk8
p1731
aV9t3a1b
p1732
aV9uxo8a
p1733
aV9sst9s
p1734
aV9ujqpb
p1735
aV9w56p4
p1736
aV9vse2q
p1737
aV9sgmcc
p1738
aV9s359j
p1739
aV9sr7gz
p1740
aV9tejjy
p1741
aV9uv5xx
p1742
aV9uhs32
p1743
aV9vvkxb
p1744
aV9uoi18
p1745
aV9smvt3
p1746
aV9txixu
p1747
aV9sfxhd
p1748
aV9w4dkm
p1749
aV9vb170
p1750
aV9vfh3c
p1751
aV9tpb25
p1752
aV9uqzx4
p1753
aV9uqxvz
p1754
aV9szj7c
p1755
aV9tpbgk
p1756
aV9v6hyv
p1757
aV9w7gpr
p1758
aV9v21tq
p1759
aV9tkbve
p1760
aV9vmo47
p1761
aV9soo69
p1762
aV9spwg2
p1763
aV9wswe3
p1764
aV9vbp6j
p1765
aV9uhzqq
p1766
aV9targ5
p1767
aV9uie1f
p1768
aV9vdx8e
p1769
aV9tw5hn
p1770
aV9vza06
p1771
aV9uff0l
p1772
aV9seqfv
p1773
aV9sqhbz
p1774
aV9w0gb1
p1775
aV9v4vzv
p1776
aV9vbsl6
p1777
aV9ut8od
p1778
aV9wosju
p1779
aV9tde9s
p1780
aV9ud10z
p1781
aV9vgb7r
p1782
aV9ucgul
p1783
aV9v4vzi
p1784
aV9vqll9
p1785
aV9vp6cf
p1786
aV9u4pvi
p1787
aV9uuezh
p1788
aV9umn9a
p1789
aV9s1c43
p1790
aV9sseue
p1791
aV9t49iw
p1792
aV9tkmrf
p1793
aV9so6vy
p1794
aV9ui9q0
p1795
aV9ttauq
p1796
aV9sp0sy
p1797
aV9uyczy
p1798
aV9tvuzb
p1799
aV9tclky
p1800
aV9wki3p
p1801
aV9wpc4m
p1802
aV9vscii
p1803
aV9wi710
p1804
aV9t0vc0
p1805
aV9sfw6b
p1806
aV9sgv1n
p1807
aV9swp0i
p1808
aV9v2ggl
p1809
aV9tzupb
p1810
aV9wjnr2
p1811
aV9vy1ft
p1812
aV9wgxf7
p1813
aV9skkch
p1814
aV9vuom6
p1815
aV9wjm2z
p1816
aV9vqsic
p1817
aV9s4pjh
p1818
aV9ue2nj
p1819
aV9w8xqg
p1820
aV9trmzx
p1821
aV9tety0
p1822
aV9wqom7
p1823
aV9vjd82
p1824
aV9uiqnn
p1825
aV9tu684
p1826
aV9u1pzw
p1827
aV9somaq
p1828
aV9ug2jy
p1829
aV9u4j2a
p1830
aV9s8968
p1831
aV9vursv
p1832
aV9sfm4d
p1833
aV9vzns8
p1834
aV9u3jph
p1835
aV9uo4r3
p1836
aV9sy2ri
p1837
aV9tedyb
p1838
aV9u3tz4
p1839
aV9sq79y
p1840
aV9sy43k
p1841
aV9vouk0
p1842
aV9wjgl4
p1843
aV9skrpa
p1844
aV9twjm0
p1845
aV9tqkjt
p1846
aV9vqkt2
p1847
aV9vegrn
p1848
aV9tb7tk
p1849
aV9wmjjh
p1850
aV9tf1e1
p1851
aV9sywnb
p1852
aV9vo8l4
p1853
aV9uzxdo
p1854
aV9srtvz
p1855
aV9wk1g4
p1856
aV9sj5r2
p1857
aV9tv30t
p1858
aV9vrlka
p1859
aV9wlvt0
p1860
aV9tzvj5
p1861
aV9ug3r7
p1862
aV9tv30e
p1863
aV9u4eh1
p1864
aV9slovg
p1865
aV9vubse
p1866
aV9tvaw3
p1867
aV9u8t2i
p1868
aV9silzf
p1869
aV9vbkqf
p1870
aV9sneug
p1871
aV9vycfn
p1872
aV9uqwsu
p1873
aV9wjbnw
p1874
aV9szxmt
p1875
aV9uz2zn
p1876
aV9ugsnn
p1877
aV9u4v8r
p1878
aV9tob5n
p1879
aV9uqwsa
p1880
aV9t3oey
p1881
aV9uott5
p1882
aV9uu69j
p1883
aV9vyn2d
p1884
aV9vodez
p1885
aV9tefca
p1886
aV9s5ibl
p1887
aV9txa84
p1888
aV9wotgw
p1889
aV9t4kd1
p1890
aV9u6ich
p1891
aV9v4x8t
p1892
aV9tjaqg
p1893
aV9w7r7h
p1894
aV9wn972
p1895
aV9sislq
p1896
aV9u7ara
p1897
aV9t39vb
p1898
aV9tl6mj
p1899
aV9sok7l
p1900
aV9u9sb2
p1901
aV9wjx6e
p1902
aV9u50kn
p1903
aV9wjd08
p1904
aV9tzu8k
p1905
aV9v0l2k
p1906
aV9whrsb
p1907
aV9tw3ua
p1908
aV9smzs6
p1909
aV9vdq6t
p1910
aV9uhxtf
p1911
aV9vrgn9
p1912
aV9vtwbp
p1913
aV9w4xcd
p1914
aV9tog8c
p1915
aV9v4sal
p1916
aV9syf4k
p1917
aV9svnvu
p1918
aV9syf4i
p1919
aV9w4xcw
p1920
aV9v105l
p1921
aV9vl9ma
p1922
aV9syd29
p1923
aV9v3a9a
p1924
aV9vn1i7
p1925
aV9vdg6g
p1926
aV9w77p0
p1927
aV9ufbgg
p1928
aV9uuark
p1929
aV9sqjgz
p1930
aV9tmvcf
p1931
aV9t0in2
p1932
aV9u75o6
p1933
aV9woffp
p1934
aV9w6lqh
p1935
aV9urlzq
p1936
aV9v9v6j
p1937
aV9vcf17
p1938
aV9tmdhw
p1939
aV9v8nod
p1940
aV9wqu2z
p1941
aV9v05i9
p1942
aV9twatx
p1943
aV9ugcsb
p1944
aV9tp6u8
p1945
aV9w54tw
p1946
aV9w57q1
p1947
aV9ut5dw
p1948
aV9u0uym
p1949
aV9v2o3x
p1950
aV9uqxiq
p1951
aV9upnp4
p1952
aV9tfcl4
p1953
aV9w7mgz
p1954
aV9ut1zg
p1955
aV9tt9a1
p1956
aV9ty4o6
p1957
aV9ty9k2
p1958
aV9t21g2
p1959
aV9w3yhp
p1960
aV9wa7ha
p1961
aV9sqm15
p1962
aV9u2jyt
p1963
aV9tynmv
p1964
aV9uo69i
p1965
aV9ssxhu
p1966
aV9wkh9y
p1967
aV9u0pcl
p1968
aV9szyf1
p1969
aV9u4o67
p1970
aV9uoqo9
p1971
aV9tg265
p1972
aV9vrkjl
p1973
aV9utvzu
p1974
aV9slt6s
p1975
aV9sfhua
p1976
aV9t7s1e
p1977
aV9t36o5
p1978
aV9v8grg
p1979
aV9vh5v8
p1980
aV9twqt2
p1981
aV9wrtqk
p1982
aV9thhwu
p1983
aV9sy8dc
p1984
aV9tbugp
p1985
aV9v5dby
p1986
aV9tup3j
p1987
aV9wa3lo
p1988
aV9vb74q
p1989
aV9vq7n3
p1990
aV9s7a2c
p1991
aV9vuvlt
p1992
aV9t1bvm
p1993
aV9u537l
p1994
aV9v8ppc
p1995
aV9sgksw
p1996
aV9vma0f
p1997
aV9vfegp
p1998
aV9ssd7d
p1999
aV9ucf76
p2000
aV9wppqc
p2001
aV9tdhn8
p2002
aV9uxsy6
p2003
aV9vr7a3
p2004
aV9uefp5
p2005
aV9u0xsw
p2006
aV9tvist
p2007
aV9wglxd
p2008
aV9v9730
p2009
aV9vhj74
p2010
aV9tpq4j
p2011
aV9tkvda
p2012
aV9tqouk
p2013
aV9t4jkw
p2014
aV9uqzzd
p2015
aV9tynqy
p2016
aV9uearh
p2017
aV9ubokb
p2018
aV9s1x1i
p2019
aV9wo0p5
p2020
aV9vtdnr
p2021
aV9t0xkt
p2022
aV9tpb0j
p2023
aV9w1mhx
p2024
aV9udxkw
p2025
aV9tmw51
p2026
aV9v58tt
p2027
aV9ufdwo
p2028
aV9v62ks
p2029
aV9so60i
p2030
aV9vyesr
p2031
aV9vdgnk
p2032
aV9urr0o
p2033
aV9url2y
p2034
aV9u5vbf
p2035
aV9sq1uk
p2036
aV9up78r
p2037
aV9tv79r
p2038
aV9tnr25
p2039
aV9ukceu
p2040
aV9tmw5t
p2041
aV9u3346
p2042
aV9s6llw
p2043
aV9vw3fg
p2044
aV9sco63
p2045
aV9wq8ef
p2046
aV9s5rna
p2047
aV9s5m9u
p2048
aV9vmnyl
p2049
aV9wh28p
p2050
aV9up3wz
p2051
aV9tyh4a
p2052
aV9vevoz
p2053
aV9v3vda
p2054
aV9tl2l1
p2055
aV9wt1gd
p2056
aV9u4xdr
p2057
aV9txejj
p2058
aV9un9ms
p2059
aV9tngsh
p2060
aV9w6879
p2061
aV9u0gje
p2062
aV9ttyny
p2063
aV9vgty1
p2064
aV9sxb18
p2065
aV9urq3h
p2066
aV9tzm7a
p2067
aV9v09b8
p2068
aV9t05c4
p2069
aV9vrwc7
p2070
aV9t94yd
p2071
aV9szz1j
p2072
aV9vycy8
p2073
aV9t1zcv
p2074
aV9u5ql0
p2075
aV9v0xnb
p2076
aV9szdol
p2077
aV9txktj
p2078
aV9t87a8
p2079
aV9v2dr8
p2080
aV9strkc
p2081
aV9v0f4p
p2082
aV9uy8xu
p2083
aV9srcuc
p2084
aV9srzog
p2085
aV9w30wj
p2086
aV9toxmn
p2087
aV9t1tez
p2088
aV9sdot1
p2089
aV9tfdmk
p2090
aV9uhy34
p2091
aV9spb34
p2092
aV9u3kpq
p2093
aV9spy0v
p2094
aV9wqjb4
p2095
aV9uhrck
p2096
aV9t6atp
p2097
aV9tlog3
p2098
aV9txzr2
p2099
aV9w3mah
p2100
aV9w6p4r
p2101
aV9uqbzh
p2102
aV9w3mag
p2103
aV9w5exd
p2104
aV9u15d0
p2105
aV9u9tnr
p2106
aV9tbs2o
p2107
aV9sqy6a
p2108
aV9w9mc8
p2109
aV9wp97o
p2110
aV9wryay
p2111
aV9vukww
p2112
aV9u1nr3
p2113
aV9tpu5f
p2114
aV9wl4co
p2115
aV9uyuuu
p2116
aV9tqp4l
p2117
aV9umlm7
p2118
aV9u7szn
p2119
aV9so0bg
p2120
aV9sy18u
p2121
aV9vxh6b
p2122
aV9tp8ox
p2123
aV9uqety
p2124
aV9t23fk
p2125
aV9vjda1
p2126
aV9stugk
p2127
aV9t30z2
p2128
aV9ukah2
p2129
aV9sta3m
p2130
aV9vc2z5
p2131
aV9va7ts
p2132
aV9t7x7s
p2133
aV9veqzp
p2134
aV9wrh3l
p2135
aV9u9xqa
p2136
aV9wqm65
p2137
aV9wr9z2
p2138
aV9svk5z
p2139
aV9u93b2
p2140
aV9u4dxx
p2141
aV9tq9gs
p2142
aV9tj56c
p2143
aV9tp09n
p2144
aV9vvm0b
p2145
aV9wmjh8
p2146
aV9s46ff
p2147
aV9sons6
p2148
aV9v1fi1
p2149
aV9srshk
p2150
aV9uhaj8
p2151
aV9uv7o2
p2152
aV9sgg50
p2153
aV9v5q2z
p2154
aV9ue86w
p2155
aV9vn5cq
p2156
aV9vq96b
p2157
aV9w3uq2
p2158
aV9ufnsm
p2159
aV9t2czy
p2160
aV9w5bpn
p2161
aV9u8ypw
p2162
aV9u8ypy
p2163
aV9w0337
p2164
aV9vt1t0
p2165
aV9utbsc
p2166
aV9wq20y
p2167
aV9tefak
p2168
aV9uovph
p2169
aV9sd640
p2170
aV9vh2yk
p2171
aV9t9p4t
p2172
aV9t9p4u
p2173
aV9tnn5c
p2174
aV9wsiq1
p2175
aV9t1hat
p2176
aV9tefax
p2177
aV9speo8
p2178
aV9snli4
p2179
aV9wsoxv
p2180
aV9vwqes
p2181
aV9u1pxy
p2182
aV9te7fs
p2183
aV9vx851
p2184
aV9tz6wv
p2185
aV9v4msl
p2186
aV9vg2jo
p2187
aV9w0bye
p2188
aV9waaxf
p2189
aV9sjdtx
p2190
aV9w7zoo
p2191
aV9wfibw
p2192
aV9tq5cx
p2193
aV9vgvll
p2194
aV9szps3
p2195
aV9vl9od
p2196
aV9tz6w4
p2197
aV9uz43b
p2198
aV9s5n0z
p2199
aV9us64g
p2200
aV9vdko4
p2201
aV9wa23z
p2202
aV9ta448
p2203
aV9ux3w8
p2204
aV9uqoan
p2205
aV9vcpqo
p2206
aV9uxzy6
p2207
aV9tl0qv
p2208
aV9sqb8j
p2209
aV9t4agz
p2210
aV9u8ozo
p2211
aV9uf77p
p2212
aV9vqxh1
p2213
aV9t8541
p2214
aV9w0929
p2215
aV9syb0j
p2216
aV9vvl0w
p2217
aV9tncxm
p2218
aV9s983z
p2219
aV9so3c8
p2220
aV9t0o8v
p2221
aV9u86vf
p2222
aV9v0tmt
p2223
aV9vxpo4
p2224
aV9tu4a2
p2225
aV9v35m4
p2226
aV9vmp0y
p2227
aV9vn108
p2228
aV9vzy1a
p2229
aV9u38u8
p2230
aV9st3j0
p2231
aV9v19m0
p2232
aV9tv7wa
p2233
aV9uij3g
p2234
aV9szvem
p2235
aV9sa9mb
p2236
aV9tk2y7
p2237
aV9wquag
p2238
aV9vufwp
p2239
aV9u3smo
p2240
aV9s5eu8
p2241
aV9s6iyx
p2242
aV9tb23c
p2243
aV9u8lxt
p2244
aV9u8elo
p2245
aV9tq2oj
p2246
aV9vrkd3
p2247
aV9tl3ms
p2248
aV9vy3yd
p2249
aV9t9u4n
p2250
aV9u8elr
p2251
aV9wrw3h
p2252
aV9t2g1n
p2253
aV9vxzy2
p2254
aV9u46sr
p2255
aV9tnsxr
p2256
aV9ty9io
p2257
aV9t4j6g
p2258
aV9s57k4
p2259
aV9tdllo
p2260
aV9ugoau
p2261
aV9w97rj
p2262
aV9u5lkg
p2263
aV9w3fv1
p2264
aV9vk8c3
p2265
aV9v6i3b
p2266
aV9v2qj2
p2267
aV9w6jyt
p2268
aV9vf68e
p2269
aV9tycui
p2270
aV9tnevi
p2271
aV9t2p2t
p2272
aV9ttehb
p2273
aV9u6h0i
p2274
aV9srifj
p2275
aV9u6pmc
p2276
aV9tnqbq
p2277
aV9sn1g7
p2278
aV9wqtef
p2279
aV9ut4xk
p2280
aV9ss7zx
p2281
aV9vhxld
p2282
aV9t1171
p2283
aV9whjm0
p2284
aV9vvejz
p2285
aV9tzkrh
p2286
aV9w7e93
p2287
aV9wmyj6
p2288
aV9udrsm
p2289
aV9udrst
p2290
aV9u7amn
p2291
aV9spmrq
p2292
aV9so6o5
p2293
aV9sih06
p2294
aV9t2wcd
p2295
aV9u3xwz
p2296
aV9vgaen
p2297
aV9tkca1
p2298
aV9vsvua
p2299
aV9srdz0
p2300
aV9w562n
p2301
aV9tuu7j
p2302
aV9tkuhe
p2303
aV9tn0xe
p2304
aV9tnpdp
p2305
aV9txmwx
p2306
aV9tw8b8
p2307
aV9tnpdn
p2308
aV9uu7np
p2309
aV9sfis6
p2310
aV9s2pf1
p2311
aV9v8m2w
p2312
aV9u90aq
p2313
aV9whniy
p2314
aV9tiez7
p2315
aV9tl4x0
p2316
aV9w9io6
p2317
aV9vwob2
p2318
aV9wrrif
p2319
aV9vmg8p
p2320
aV9uok7e
p2321
aV9uz0wu
p2322
aV9wovfw
p2323
aV9v62id
p2324
aV9wmf7k
p2325
aV9uok7u
p2326
aV9sd250
p2327
aV9wq3k0
p2328
aV9u5vdp
p2329
aV9tc19l
p2330
aV9vil9d
p2331
aV9vpomw
p2332
aV9s7ail
p2333
aV9u4w2b
p2334
aV9vf9w1
p2335
aV9tx9v5
p2336
aV9w49xd
p2337
aV9w42fr
p2338
aV9w63tu
p2339
aV9v1ajl
p2340
aV9v1ddh
p2341
aV9wt12e
p2342
aV9vl022
p2343
aV9vc6tp
p2344
aV9vcgra
p2345
aV9sw9vu
p2346
aV9veitl
p2347
aV9u5g7f
p2348
aV9vnh5w
p2349
aV9ujs40
p2350
aV9ssfem
p2351
aV9vvanp
p2352
aV9sifeh
p2353
aV9tlb4b
p2354
aV9t1el9
p2355
aV9vmo8h
p2356
aV9tppbq
p2357
aV9t8ors
p2358
aV9vymmd
p2359
aV9wsyda
p2360
aV9t49ur
p2361
aV9uflx8
p2362
aV9ur23q
p2363
aV9vomcq
p2364
aV9vc7pb
p2365
aV9vras6
p2366
aV9v1ikk
p2367
aV9u80e4
p2368
aV9wstsi
p2369
aV9t1tgl
p2370
aV9t0tyt
p2371
aV9uf5ax
p2372
aV9twwgl
p2373
aV9uiej4
p2374
aV9stm85
p2375
aV9w3mcj
p2376
aV9utsod
p2377
aV9vidqu
p2378
aV9uqkhp
p2379
aV9w52p9
p2380
aV9wa5eo
p2381
aV9vvdlr
p2382
aV9spg41
p2383
aV9wk5wv
p2384
aV9tqqxr
p2385
aV9tyqvg
p2386
aV9u6tn1
p2387
aV9upe30
p2388
aV9tu8ji
p2389
aV9tzzpq
p2390
aV9wt1ef
p2391
aV9wj4vi
p2392
aV9tb5vy
p2393
aV9vyaqs
p2394
aV9vy1j1
p2395
aV9uttcd
p2396
aV9spg4f
p2397
aV9vdfk3
p2398
aV9u8ca8
p2399
aV9t3s38
p2400
aV9wnvyh
p2401
aV9uiwph
p2402
aV9sknh2
p2403
aV9tniw6
p2404
aV9v8zlq
p2405
aV9wsgb7
p2406
aV9w72o3
p2407
aV9tiwin
p2408
aV9ufop0
p2409
aV9u7sti
p2410
aV9t4np3
p2411
aV9vdptr
p2412
aV9w8jos
p2413
aV9wpmgq
p2414
aV9uiafq
p2415
aV9tqaxb
p2416
aV9ukvkm
p2417
aV9t8w9a
p2418
aV9u529u
p2419
aV9t9jkm
p2420
aV9w4w70
p2421
aV9v00jl
p2422
aV9tnl92
p2423
aV9u4dnm
p2424
aV9upssv
p2425
aV9td52i
p2426
aV9vaphq
p2427
aV9uv6ej
p2428
aV9upq88
p2429
aV9vffcp
p2430
aV9sr3rn
p2431
aV9t4bl8
p2432
aV9ue84g
p2433
aV9ts6am
p2434
aV9vs380
p2435
aV9t1r2n
p2436
aV9ulxxy
p2437
aV9v9n0s
p2438
aV9ujtk6
p2439
aV9tvr4h
p2440
aV9uwxlh
p2441
aV9sx568
p2442
aV9sw8vo
p2443
aV9v4htg
p2444
aV9v8ywp
p2445
aV9uzgl8
p2446
aV9sp7bl
p2447
aV9ubumu
p2448
aV9um3x7
p2449
aV9wj5mf
p2450
aV9somee
p2451
aV9u1i15
p2452
aV9sia25
p2453
aV9w6l5w
p2454
aV9ucz4b
p2455
aV9vt9gz
p2456
aV9t6832
p2457
aV9sje8j
p2458
aV9u707u
p2459
aV9sr0ps
p2460
aV9vc55n
p2461
aV9w17tk
p2462
aV9smb4e
p2463
aV9ta46z
p2464
aV9ssa5h
p2465
aV9vpyx7
p2466
aV9vpu9e
p2467
aV9ta9zn
p2468
aV9vyi9v
p2469
aV9thkz7
p2470
aV9vruxa
p2471
aV9u43kq
p2472
aV9w7p5n
p2473
aV9u729c
p2474
aV9ujucz
p2475
aV9si6fl
p2476
aV9urm8u
p2477
aV9t39j8
p2478
aV9w448b
p2479
aV9trqrs
p2480
aV9sx7oy
p2481
aV9v1jg9
p2482
aV9sydcb
p2483
aV9ut16m
p2484
aV9sjbl7
p2485
aV9snvuh
p2486
aV9tv7uc
p2487
aV9sjp34
p2488
aV9tf9vj
p2489
aV9w7ppp
p2490
aV9w26mx
p2491
aV9vqe1k
p2492
aV9vmxmr
p2493
aV9u1mrf
p2494
aV9v3k3w
p2495
aV9w0qj4
p2496
aV9ufbk6
p2497
aV9u31a5
p2498
aV9tzk8r
p2499
aV9t4fkb
p2500
aV9v2xwy
p2501
aV9so3au
p2502
aV9v7opc
p2503
aV9w548b
p2504
aV9vut23
p2505
aV9tllxt
p2506
aV9t8s2w
p2507
aV9utvf7
p2508
aV9sylvm
p2509
aV9w7nuu
p2510
aV9td1np
p2511
aV9tqwyq
p2512
aV9t2c00
p2513
aV9syssf
p2514
aV9vjnpl
p2515
aV9udjee
p2516
aV9sp4lt
p2517
aV9upaqb
p2518
aV9uamet
p2519
aV9tct2f
p2520
aV9wpwyb
p2521
aV9tec6w
p2522
aV9slbqb
p2523
aV9tycw1
p2524
aV9sn1yj
p2525
aV9styd1
p2526
aV9uelau
p2527
aV9wpwub
p2528
aV9uoju3
p2529
aV9sqquj
p2530
aV9s3vwv
p2531
aV9t8xbh
p2532
aV9uq077
p2533
aV9teimn
p2534
aV9ufw83
p2535
aV9tnsv2
p2536
aV9td9nf
p2537
aV9uo0a1
p2538
aV9u7ycu
p2539
aV9s77v8
p2540
aV9uxr3f
p2541
aV9tbe5a
p2542
aV9ta12b
p2543
aV9waa67
p2544
aV9vmiqr
p2545
aV9t71ax
p2546
aV9w04bd
p2547
aV9tdv37
p2548
aV9vlflz
p2549
aV9u5y0i
p2550
aV9v6b6t
p2551
aV9u56bb
p2552
aV9vp7j6
p2553
aV9w1o1i
p2554
aV9v8d5n
p2555
aV9u91o5
p2556
aV9vq7je
p2557
aV9tow1d
p2558
aV9wro56
p2559
aV9w8wu2
p2560
aV9tqic6
p2561
aV9u4qwt
p2562
aV9v04qr
p2563
aV9t0al5
p2564
aV9tzzot
p2565
aV9uk7l0
p2566
aV9u4qwo
p2567
aV9uxo2w
p2568
aV9ws2wt
p2569
aV9td2sx
p2570
aV9sinsm
p2571
aV9w5gic
p2572
aV9vf0cp
p2573
aV9sgmit
p2574
aV9tgalk
p2575
aV9tce13
p2576
aV9t2d8r
p2577
aV9vebnn
p2578
aV9unxqn
p2579
aV9sytfy
p2580
aV9w6fgx
p2581
aV9srlxi
p2582
aV9uaww1
p2583
aV9ta2po
p2584
aV9vtmlz
p2585
aV9vtmlx
p2586
aV9vv68h
p2587
aV9u3tmj
p2588
aV9vmyvq
p2589
aV9sxv34
p2590
aV9tw1ro
p2591
aV9u5v3u
p2592
aV9tcril
p2593
aV9wa6bw
p2594
aV9wa6bs
p2595
aV9v0i4d
p2596
aV9v07pg
p2597
aV9vval2
p2598
aV9w1blj
p2599
aV9w9bbn
p2600
aV9t04y4
p2601
aV9wg3dl
p2602
aV9wt1a5
p2603
aV9uz8xu
p2604
aV9ucxaa
p2605
aV9wsp9m
p2606
aV9tms4e
p2607
aV9ty0bn
p2608
aV9tw7xo
p2609
aV9u252x
p2610
aV9t0m5a
p2611
aV9tarip
p2612
aV9wkhmx
p2613
aV9w712f
p2614
aV9sp7yz
p2615
aV9uht4e
p2616
aV9w03wb
p2617
aV9u00d1
p2618
aV9vjzdl
p2619
aV9uf647
p2620
aV9sifc2
p2621
aV9ud30q
p2622
aV9v6t6e
p2623
aV9uuepc
p2624
aV9swxod
p2625
aV9tqjb1
p2626
aV9usc3f
p2627
aV9ty0tt
p2628
aV9t9j4c
p2629
aV9ttvbi
p2630
aV9vy1lr
p2631
aV9u50rn
p2632
aV9ue8z3
p2633
aV9vy192
p2634
aV9u2x4w
p2635
aV9s7bm9
p2636
aV9tbklw
p2637
aV9sdnl3
p2638
aV9wp93f
p2639
aV9sla6r
p2640
aV9ufq5c
p2641
aV9sycok
p2642
aV9v6ut5
p2643
aV9um2a3
p2644
aV9v20e4
p2645
aV9t201w
p2646
aV9tzzrv
p2647
aV9uxnt0
p2648
aV9snafc
p2649
aV9u2a7n
p2650
aV9u5zbo
p2651
aV9tt5bc
p2652
aV9snwtv
p2653
aV9t9ji5
p2654
aV9tsbl3
p2655
aV9u7jnq
p2656
aV9sn3js
p2657
aV9uudwr
p2658
aV9t15qt
p2659
aV9vc9zl
p2660
aV9w9hm1
p2661
aV9vfczd
p2662
aV9tgasy
p2663
aV9ukye0
p2664
aV9u68hz
p2665
aV9szq7i
p2666
aV9v49vx
p2667
aV9uv6c4
p2668
aV9v78dq
p2669
aV9uqepo
p2670
aV9tztx6
p2671
aV9uhebt
p2672
aV9umlal
p2673
aV9unu4m
p2674
aV9womub
p2675
aV9sq2k7
p2676
aV9sht75
p2677
aV9txw1r
p2678
aV9whi8i
p2679
aV9tcnmd
p2680
aV9tocso
p2681
aV9uft7v
p2682
aV9wobk3
p2683
aV9v2ira
p2684
aV9u9jkj
p2685
aV9snlmn
p2686
aV9v5np0
p2687
aV9stmvm
p2688
aV9tuca6
p2689
aV9sp9my
p2690
aV9wjzup
p2691
aV9sizzx
p2692
aV9u6yrg
p2693
aV9ueich
p2694
aV9sjf5a
p2695
aV9tvgzb
p2696
aV9vmmxh
p2697
aV9u4efy
p2698
aV9uhvc0
p2699
aV9v4blc
p2700
aV9wpj7m
p2701
aV9t3a7k
p2702
aV9u3rzu
p2703
aV9spbg5
p2704
aV9v4hzp
p2705
aV9u8nyz
p2706
aV9vv7cx
p2707
aV9t80pg
p2708
aV9u6b85
p2709
aV9vj52n
p2710
aV9wqq4z
p2711
aV9tvoza
p2712
aV9vmcb1
p2713
aV9sojmj
p2714
aV9w3vov
p2715
aV9sq4dk
p2716
aV9tbupq
p2717
aV9smb2i
p2718
aV9wpv96
p2719
aV9ux3su
p2720
aV9vizy2
p2721
aV9u7atr
p2722
aV9u2735
p2723
aV9tqej0
p2724
aV9wmcw3
p2725
aV9syl83
p2726
aV9w6956
p2727
aV9uu0xf
p2728
aV9sj2rc
p2729
aV9s4u56
p2730
aV9twaf9
p2731
aV9sxfi0
p2732
aV9v31mw
p2733
aV9uqoel
p2734
aV9w8kai
p2735
aV9tdth6
p2736
aV9v5ov1
p2737
aV9u88tx
p2738
aV9wnds4
p2739
aV9t3zxy
p2740
aV9v43yv
p2741
aV9soh6y
p2742
aV9uwmyp
p2743
aV9unxne
p2744
aV9vaexf
p2745
aV9t0d3b
p2746
aV9uvckw
p2747
aV9tvxcq
p2748
aV9vusfz
p2749
aV9u4uep
p2750
aV9t9d7t
p2751
aV9uk359
p2752
aV9ujdjc
p2753
aV9sqo19
p2754
aV9t5pxo
p2755
aV9sogg9
p2756
aV9tqn5i
p2757
aV9t2480
p2758
aV9trcco
p2759
aV9vqq9u
p2760
aV9vqe30
p2761
aV9w2kr8
p2762
aV9uovko
p2763
aV9uqxcy
p2764
aV9wagb6
p2765
aV9wabhn
p2766
aV9v0wqa
p2767
aV9ss4hu
p2768
aV9uqiix
p2769
aV9u4hj3
p2770
aV9vk8ou
p2771
aV9tvps2
p2772
aV9w1kgi
p2773
aV9uda6e
p2774
aV9w3fjh
p2775
aV9uebj9
p2776
aV9srib8
p2777
aV9w5gkn
p2778
aV9tykay
p2779
aV9stxzx
p2780
aV9vjukg
p2781
aV9v9bo2
p2782
aV9uluhl
p2783
aV9s50e8
p2784
aV9wnxnz
p2785
aV9vn9s4
p2786
aV9v45wk
p2787
aV9vd4m4
p2788
aV9wsyy3
p2789
aV9sq0xr
p2790
aV9w3m7q
p2791
aV9u4hjp
p2792
aV9viy6h
p2793
aV9vua51
p2794
aV9vpufl
p2795
aV9u2qse
p2796
aV9spplv
p2797
aV9v1pc6
p2798
aV9ula9v
p2799
aV9vn9sc
p2800
aV9tycqy
p2801
aV9ttlpu
p2802
aV9vvtvm
p2803
aV9wpgvw
p2804
aV9vi1a8
p2805
aV9tm2cs
p2806
aV9u4o0d
p2807
aV9s77t9
p2808
aV9vm6pg
p2809
aV9sim94
p2810
aV9vmz1v
p2811
aV9t34w9
p2812
aV9v1qcb
p2813
aV9srmno
p2814
aV9s5so2
p2815
aV9s56w2
p2816
aV9t13fd
p2817
aV9tz89g
p2818
aV9un8h7
p2819
aV9up2vq
p2820
aV9tyldf
p2821
aV9syctz
p2822
aV9wjfu4
p2823
aV9spqbh
p2824
aV9v1ysl
p2825
aV9w2o1k
p2826
aV9vr1qg
p2827
aV9woifj
p2828
aV9seluo
p2829
aV9vf4id
p2830
aV9tek8b
p2831
aV9udrw2
p2832
aV9t0y8z
p2833
aV9vc45i
p2834
aV9u8pkt
p2835
aV9w7ohf
p2836
aV9u6xbj
p2837
aV9ups7n
p2838
aV9szy4p
p2839
aV9wof4q
p2840
aV9vjelm
p2841
aV9vebhs
p2842
aV9t3qqi
p2843
aV9rzqg7
p2844
aV9sqgfu
p2845
aV9s79bz
p2846
aV9ughp6
p2847
aV9toc9p
p2848
aV9uo7sa
p2849
aV9t7fii
p2850
aV9ttpic
p2851
aV9v1z1q
p2852
aV9vz1qq
p2853
aV9tfy12
p2854
aV9u7uuz
p2855
aV9w8e3o
p2856
aV9t9900
p2857
aV9uusoe
p2858
aV9t2i74
p2859
aV9wk53b
p2860
aV9utdzp
p2861
aV9vdyiz
p2862
aV9w2xpz
p2863
aV9vrxi5
p2864
aV9ucc4z
p2865
aV9ur3bs
p2866
aV9t4jhm
p2867
aV9v1k6u
p2868
aV9tyb8v
p2869
aV9uf3wj
p2870
aV9wt4ps
p2871
aV9tnmga
p2872
aV9ugtol
p2873
aV9wopxk
p2874
aV9sr5q8
p2875
aV9tv156
p2876
aV9t9roz
p2877
aV9uqg0d
p2878
aV9vo7rm
p2879
aV9wt16g
p2880
aV9t8ze8
p2881
aV9wikys
p2882
aV9sobht
p2883
aV9s25bb
p2884
aV9t10s5
p2885
aV9s5m8e
p2886
aV9v5icj
p2887
aV9tz2bk
p2888
aV9tcvol
p2889
aV9vmvrx
p2890
aV9u49bf
p2891
aV9vtuc7
p2892
aV9vn7bs
p2893
aV9wkeok
p2894
aV9t4l2z
p2895
aV9v0bfu
p2896
aV9sr4w6
p2897
aV9si0mg
p2898
aV9ux77k
p2899
aV9svjmr
p2900
aV9uby54
p2901
aV9w4n2a
p2902
aV9u9777
p2903
aV9w5pem
p2904
aV9t10sw
p2905
aV9syrz0
p2906
aV9wauzu
p2907
aV9ty0vc
p2908
aV9tz6nv
p2909
aV9wj8y2
p2910
aV9vyggj
p2911
aV9v0ic2
p2912
aV9v6643
p2913
aV9tmsb2
p2914
aV9ss5ut
p2915
aV9sex3p
p2916
aV9txkra
p2917
aV9u919u
p2918
aV9ta9ck
p2919
aV9v4frw
p2920
aV9siswc
p2921
aV9v9rh0
p2922
aV9szslx
p2923
aV9wqzfq
p2924
aV9txax2
p2925
aV9sld1x
p2926
aV9w7kls
p2927
aV9voic7
p2928
aV9wgxns
p2929
aV9twemf
p2930
aV9u77h8
p2931
aV9w81wi
p2932
aV9t0vku
p2933
aV9snvt3
p2934
aV9u1t3b
p2935
aV9wicyh
p2936
aV9tvdip
p2937
aV9vbsts
p2938
aV9wcslz
p2939
aV9viu1e
p2940
aV9ulisq
p2941
aV9s6gae
p2942
aV9uoyba
p2943
aV9tkxqu
p2944
aV9sh8pa
p2945
aV9ugadb
p2946
aV9st4gk
p2947
aV9s29f3
p2948
aV9w35es
p2949
aV9t15wt
p2950
aV9soez8
p2951
aV9sjgw9
p2952
aV9ujzy7
p2953
aV9srn13
p2954
aV9vxg7v
p2955
aV9uixao
p2956
aV9syw3i
p2957
aV9vvqou
p2958
aV9vpg1m
p2959
aV9wp6lb
p2960
aV9u4dbv
p2961
aV9vl3bc
p2962
aV9wisa6
p2963
aV9tkxq6
p2964
aV9tpp61
p2965
aV9wocyd
p2966
aV9v368q
p2967
aV9vahd7
p2968
aV9u69rh
p2969
aV9tu3f7
p2970
aV9tv3gs
p2971
aV9u67hr
p2972
aV9u3trp
p2973
aV9v759x
p2974
aV9uee9m
p2975
aV9tvl10
p2976
aV9vvq2u
p2977
aV9t0ujr
p2978
aV9t7d33
p2979
aV9tjrmx
p2980
aV9tglef
p2981
aV9sid7j
p2982
aV9wousy
p2983
aV9w5bzy
p2984
aV9vflio
p2985
aV9wq7gl
p2986
aV9sq02x
p2987
aV9st03e
p2988
aV9tybpn
p2989
aV9vtfug
p2990
aV9veqxf
p2991
aV9tne4p
p2992
aV9vewzu
p2993
aV9tne4x
p2994
aV9v65xk
p2995
aV9v3hhm
p2996
aV9wiuc8
p2997
aV9t3ylq
p2998
aV9ueco0
p2999
aV9sojob
p3000
aV9v8g9g
p3001
aV9u7qz9
p3002
aV9uhqsm
p3003
aV9tlni6
p3004
aV9u1fxa
p3005
aV9tuuij
p3006
aV9sq3ra
p3007
aV9sroc6
p3008
aV9u59k4
p3009
aV9ttns8
p3010
aV9smzkg
p3011
aV9st0j1
p3012
aV9v0rev
p3013
aV9srqlp
p3014
aV9uo9vl
p3015
aV9utcmo
p3016
aV9tkqeb
p3017
aV9v5otx
p3018
aV9w9gwz
p3019
aV9uouhz
p3020
aV9t3ttd
p3021
aV9td3nx
p3022
aV9tbmbz
p3023
aV9wk4lm
p3024
aV9tjr8a
p3025
aV9tbmbd
p3026
aV9v4epl
p3027
aV9uthsb
p3028
aV9t9uvm
p3029
aV9vuxpf
p3030
aV9t4kl2
p3031
aV9uy4qs
p3032
aV9t6jsy
p3033
aV9t86xs
p3034
aV9tktm8
p3035
aV9sze7w
p3036
aV9szpun
p3037
aV9sygja
p3038
aV9v3xm3
p3039
aV9v43wj
p3040
aV9ssq9e
p3041
aV9w0rr7
p3042
aV9v67z9
p3043
aV9t3zzk
p3044
aV9vye3i
p3045
aV9wjsxy
p3046
aV9teqbj
p3047
aV9tq6mm
p3048
aV9u952o
p3049
aV9w54mc
p3050
aV9thitf
p3051
aV9vthw3
p3052
aV9ty8ki
p3053
aV9tehm2
p3054
aV9uukqy
p3055
aV9uwt49
p3056
aV9vbycv
p3057
aV9tevdx
p3058
aV9totu7
p3059
aV9ssy9o
p3060
aV9wa0ve
p3061
aV9t612v
p3062
aV9v9qu0
p3063
aV9tpug5
p3064
aV9wdvm9
p3065
aV9tlltx
p3066
aV9us1n1
p3067
aV9tlfjr
p3068
aV9stu1a
p3069
aV9tsywy
p3070
aV9v5mzn
p3071
aV9tz51n
p3072
aV9u4rq3
p3073
aV9u81bs
p3074
aV9so2i0
p3075
aV9u8r1z
p3076
aV9sqst8
p3077
aV9uiy5n
p3078
aV9u1rcg
p3079
aV9toghd
p3080
aV9uwcau
p3081
aV9swewb
p3082
aV9uwj65
p3083
aV9t42as
p3084
aV9tjpfi
p3085
aV9sq0za
p3086
aV9w6q68
p3087
aV9tcqht
p3088
aV9ubxfo
p3089
aV9rzk6i
p3090
aV9u4sun
p3091
aV9vcyw6
p3092
aV9sphop
p3093
aV9ufayh
p3094
aV9vg5lq
p3095
aV9wjg7e
p3096
aV9ut8pp
p3097
aV9ttebg
p3098
aV9v11cu
p3099
aV9u6pkp
p3100
aV9wim5o
p3101
aV9uea2n
p3102
aV9w290i
p3103
aV9tkgwp
p3104
aV9txp3i
p3105
aV9w2evi
p3106
aV9vf99c
p3107
aV9t1nba
p3108
aV9vekqa
p3109
aV9vl5ax
p3110
aV9uha8k
p3111
aV9w7txp
p3112
aV9u0i0d
p3113
aV9voktd
p3114
aV9tnwnj
p3115
aV9v429x
p3116
aV9vid3v
p3117
aV9wqxou
p3118
aV9v2ni7
p3119
aV9tiyb5
p3120
aV9vw4rv
p3121
aV9vplo4
p3122
aV9tew0f
p3123
aV9tn2tu
p3124
aV9sy02z
p3125
aV9shkz9
p3126
aV9wbicw
p3127
aV9w70p4
p3128
aV9tx35a
p3129
aV9s677p
p3130
aV9wq3wh
p3131
aV9vqoky
p3132
aV9vt5zn
p3133
aV9w7m78
p3134
aV9t9yt6
p3135
aV9sm2jd
p3136
aV9vwh2d
p3137
aV9sjj0g
p3138
aV9v407l
p3139
aV9tsn0i
p3140
aV9ulmjw
p3141
aV9udjih
p3142
aV9tcj8s
p3143
aV9wgq00
p3144
aV9s9v7a
p3145
aV9wifdr
p3146
aV9tkuvm
p3147
aV9wppy9
p3148
aV9swv9t
p3149
aV9simjy
p3150
aV9t6nj7
p3151
aV9t06kd
p3152
aV9u4gay
p3153
aV9tjlzw
p3154
aV9tmnk6
p3155
aV9v5ss6
p3156
aV9w68zp
p3157
aV9whsbz
p3158
aV9tcz87
p3159
aV9tvp9c
p3160
aV9ujrbj
p3161
aV9vyh9c
p3162
aV9t2i1l
p3163
aV9t1804
p3164
aV9vnvl6
p3165
aV9uyl3v
p3166
aV9wjamu
p3167
aV9tl4fs
p3168
aV9sochu
p3169
aV9w7qpt
p3170
aV9vcv42
p3171
aV9ur0jf
p3172
aV9syt7y
p3173
aV9ufm8e
p3174
aV9u3pfl
p3175
aV9tls9p
p3176
aV9tksfx
p3177
aV9sz7r6
p3178
aV9v0xv0
p3179
aV9wq4j1
p3180
aV9v5r3a
p3181
aV9uowwf
p3182
aV9uowwz
p3183
aV9sq82u
p3184
aV9vd9mt
p3185
aV9sie6o
p3186
aV9vmh9g
p3187
aV9vv7z6
p3188
aV9sx3f0
p3189
aV9udknu
p3190
aV9vg6u5
p3191
aV9ta52x
p3192
aV9und63
p3193
aV9wsyeq
p3194
aV9wswkv
p3195
aV9vxy0z
p3196
aV9t2ps4
p3197
aV9vgg0p
p3198
aV9v46up
p3199
aV9upvef
p3200
aV9upbqr
p3201
aV9upvel
p3202
aV9w37q3
p3203
aV9sou49
p3204
aV9vz2qz
p3205
aV9sqw4r
p3206
aV9u3j6s
p3207
aV9tzmzn
p3208
aV9tw62q
p3209
aV9vfgb3
p3210
aV9vrie3
p3211
aV9wor7j
p3212
aV9t0kau
p3213
aV9ve52r
p3214
aV9tpf4m
p3215
aV9wgawn
p3216
aV9tkqxr
p3217
aV9tlx0m
p3218
aV9uxnhh
p3219
aV9uiv0t
p3220
aV9t4fj6
p3221
aV9t8il0
p3222
aV9shusi
p3223
aV9uiv0e
p3224
aV9tj658
p3225
aV9tmzpw
p3226
aV9v2dz7
p3227
aV9spg2y
p3228
aV9v1dnd
p3229
aV9ujs7w
p3230
aV9ut4yb
p3231
aV9sqf9s
p3232
aV9wrswn
p3233
aV9v8jvt
p3234
aV9w95gi
p3235
aV9spg2e
p3236
aV9w1c61
p3237
aV9tn6gz
p3238
aV9sntt0
p3239
aV9uf2nx
p3240
aV9uzzll
p3241
aV9ublwy
p3242
aV9u8au7
p3243
aV9ublwe
p3244
aV9uv0yq
p3245
aV9u31vc
p3246
aV9ud8pz
p3247
aV9vvqmw
p3248
aV9tgabp
p3249
aV9toayu
p3250
aV9u1m0v
p3251
aV9s33vy
p3252
aV9v2x5g
p3253
aV9szs50
p3254
aV9vfz86
p3255
aV9vfw57
p3256
aV9t58xv
p3257
aV9v4rpd
p3258
aV9w6rpn
p3259
aV9t9v28
p3260
aV9t9jmu
p3261
aV9ty508
p3262
aV9t2a32
p3263
aV9ss9o7
p3264
aV9wnb1n
p3265
aV9w0h3e
p3266
aV9t417b
p3267
aV9tou6x
p3268
aV9t5wen
p3269
aV9urjqe
p3270
aV9vyawp
p3271
aV9wn44l
p3272
aV9v4bp0
p3273
aV9s46nu
p3274
aV9vtvts
p3275
aV9vljo3
p3276
aV9tzns2
p3277
aV9vawjb
p3278
aV9s7e3k
p3279
aV9tglct
p3280
aV9vdhol
p3281
aV9u74re
p3282
aV9splh1
p3283
aV9vg2vy
p3284
aV9wfuji
p3285
aV9vowow
p3286
aV9wsvx8
p3287
aV9szjv3
p3288
aV9si4h6
p3289
aV9sznmr
p3290
aV9w6r95
p3291
aV9vxotz
p3292
aV9wq1ep
p3293
aV9w573o
p3294
aV9vttjt
p3295
aV9ujtag
p3296
aV9vd8rr
p3297
aV9swkzg
p3298
aV9v1utn
p3299
aV9t24dd
p3300
aV9t1p6j
p3301
aV9uecm4
p3302
aV9utxqi
p3303
aV9t38b9
p3304
aV9vhu7m
p3305
aV9sx50q
p3306
aV9v1eu8
p3307
aV9v1f4f
p3308
aV9u0rnd
p3309
aV9tl6cb
p3310
aV9tvrrl
p3311
aV9t2tzp
p3312
aV9tas4u
p3313
aV9u8786
p3314
aV9vfzpt
p3315
aV9svf2a
p3316
aV9wpsgq
p3317
aV9vzjng
p3318
aV9us6a4
p3319
aV9sh1db
p3320
aV9uqtk9
p3321
aV9w31ae
p3322
aV9uhr30
p3323
aV9w0iau
p3324
aV9tz68i
p3325
aV9ushdn
p3326
aV9vz6h7
p3327
aV9u8j64
p3328
aV9um52i
p3329
aV9shxtu
p3330
aV9umyjl
p3331
aV9t3tjd
p3332
aV9vz5tv
p3333
aV9uq0qw
p3334
aV9u6980
p3335
aV9vj3uq
p3336
aV9tn8e6
p3337
aV9w5b0d
p3338
aV9upo4u
p3339
aV9t7wh8
p3340
aV9trh9n
p3341
aV9vweye
p3342
aV9s6f83
p3343
aV9tk5qh
p3344
aV9wkmnf
p3345
aV9wnzy2
p3346
aV9tx5au
p3347
aV9urr92
p3348
aV9talhe
p3349
aV9vnbcd
p3350
aV9siitv
p3351
aV9ug28s
p3352
aV9upx37
p3353
aV9s5sjs
p3354
aV9whtof
p3355
aV9sv6bg
p3356
aV9sn36o
p3357
aV9vlm9y
p3358
aV9ty8ep
p3359
aV9tqftt
p3360
aV9ueg24
p3361
aV9vw3uj
p3362
aV9u3qw4
p3363
aV9usx1d
p3364
aV9tjler
p3365
aV9v4mbo
p3366
aV9smzib
p3367
aV9ugf53
p3368
aV9tsfkc
p3369
aV9vw99z
p3370
aV9uhlfq
p3371
aV9u2zjs
p3372
aV9sw5hb
p3373
aV9sr9jq
p3374
aV9ty88v
p3375
aV9w9ect
p3376
aV9vnacq
p3377
aV9su6fa
p3378
aV9u9rkx
p3379
aV9tljd9
p3380
aV9wdxu7
p3381
aV9ve77a
p3382
aV9tyk63
p3383
aV9wihal
p3384
aV9us7z8
p3385
aV9szob8
p3386
aV9uuxrk
p3387
aV9wfm38
p3388
aV9ugywo
p3389
aV9upyn5
p3390
aV9v0vkf
p3391
aV9tquio
p3392
aV9uq54v
p3393
aV9v0vki
p3394
aV9spwts
p3395
aV9tpqi3
p3396
aV9tntf0
p3397
aV9tkgup
p3398
aV9snco3
p3399
aV9tef1u
p3400
aV9vjx57
p3401
aV9tv9ag
p3402
aV9v4y3t
p3403
aV9wjfqj
p3404
aV9w5d3c
p3405
aV9tc3az
p3406
aV9sr92t
p3407
aV9w7m1h
p3408
aV9v1itt
p3409
aV9s5s0m
p3410
aV9tmz6x
p3411
aV9vwm1c
p3412
aV9uz4c1
p3413
aV9vv8zj
p3414
aV9ta5h4
p3415
aV9u2nzg
p3416
aV9tkuqn
p3417
aV9scxyq
p3418
aV9vwxnv
p3419
aV9sdd2s
p3420
aV9vn8wd
p3421
aV9wssm2
p3422
aV9vqja1
p3423
aV9tmj5t
p3424
aV9wqwqx
p3425
aV9vczmr
p3426
aV9wrgi7
p3427
aV9vv8z2
p3428
aV9u5gwg
p3429
aV9vddn0
p3430
aV9wshs6
p3431
aV9tva81
p3432
aV9vvy34
p3433
aV9wjlkz
p3434
aV9she9n
p3435
aV9tc1sg
p3436
aV9ups3w
p3437
aV9wkwa5
p3438
aV9w1ybv
p3439
aV9v4oep
p3440
aV9tc0aa
p3441
aV9v0fv7
p3442
aV9vl0gt
p3443
aV9wj9bb
p3444
aV9t644a
p3445
aV9vyswu
p3446
aV9sqgbd
p3447
aV9ucy27
p3448
aV9sp5i1
p3449
aV9sw7g1
p3450
aV9tvu6f
p3451
aV9uof61
p3452
aV9w5db2
p3453
aV9shm9v
p3454
aV9tlxjl
p3455
aV9wpfmp
p3456
aV9sf0xw
p3457
aV9td8z9
p3458
aV9tlyz3
p3459
aV9vzyak
p3460
aV9v3ce4
p3461
aV9sq84c
p3462
aV9uuf7g
p3463
aV9smk0v
p3464
aV9u4vdz
p3465
aV9v5cq1
p3466
aV9u8fbv
p3467
aV9w9tos
p3468
aV9te6yw
p3469
aV9uz517
p3470
aV9s4v7s
p3471
aV9v3b52
p3472
aV9s7ck8
p3473
aV9soabm
p3474
aV9tlh2x
p3475
aV9ttrhg
p3476
aV9ueitg
p3477
aV9v1xpv
p3478
aV9vhmt5
p3479
aV9stqq8
p3480
aV9txsno
p3481
aV9vf7y0
p3482
aV9t4g1e
p3483
aV9vmvvr
p3484
aV9vzd99
p3485
aV9t42gb
p3486
aV9w7vg9
p3487
aV9w60xz
p3488
aV9wmv0f
p3489
aV9ubn39
p3490
aV9sxxp8
p3491
aV9wa19u
p3492
aV9tuive
p3493
aV9vcdni
p3494
aV9uk94m
p3495
aV9sj6ol
p3496
aV9u7nc5
p3497
aV9u57tu
p3498
aV9sj6oe
p3499
aV9wl360
p3500
aV9ufmvu
p3501
aV9utsgd
p3502
aV9vdqjy
p3503
aV9szes3
p3504
aV9s6dgn
p3505
aV9vovj6
p3506
aV9uh91i
p3507
aV9tmjqq
p3508
aV9ttg0s
p3509
aV9w5efu
p3510
aV9vmn1g
p3511
aV9v1gxh
p3512
aV9wkms2
p3513
aV9shduo
p3514
aV9ur18k
p3515
aV9vzlch
p3516
aV9w7pu6
p3517
aV9t9uox
p3518
aV9uwsga
p3519
aV9w9yu2
p3520
aV9toz4w
p3521
aV9uqbt4
p3522
aV9u3utt
p3523
aV9v82eb
p3524
aV9syytk
p3525
aV9vyr7n
p3526
aV9t7yyy
p3527
aV9wkasd
p3528
aV9ty56a
p3529
aV9u6d9g
p3530
aV9uzxp2
p3531
aV9vsu22
p3532
aV9vfu5w
p3533
aV9tfm02
p3534
aV9tldmw
p3535
aV9t1d5v
p3536
aV9s52bl
p3537
aV9v7557
p3538
aV9tm5x6
p3539
aV9uyjf0
p3540
aV9vcvjx
p3541
aV9ta1on
p3542
aV9van13
p3543
aV9vlymn
p3544
aV9ud3b9
p3545
aV9tx16g
p3546
aV9v9uy2
p3547
aV9ubuno
p3548
aV9s7e5r
p3549
aV9vcnm3
p3550
aV9wiwix
p3551
aV9tb9vo
p3552
aV9w5p7f
p3553
aV9u0zhd
p3554
aV9uyorv
p3555
aV9tdulu
p3556
aV9vg05m
p3557
aV9sssgp
p3558
aV9u3prf
p3559
aV9vrttr
p3560
aV9vbkeq
p3561
aV9vfun3
p3562
aV9s63oy
p3563
aV9utj8d
p3564
aV9u0j52
p3565
aV9u71bt
p3566
aV9sznoi
p3567
aV9tia68
p3568
aV9sif5h
p3569
aV9tdlsv
p3570
aV9u5x6z
p3571
aV9t5i8m
p3572
aV9v092f
p3573
aV9s1v3y
p3574
aV9ssvcq
p3575
aV9urqas
p3576
aV9u5x6a
p3577
aV9t4tv5
p3578
aV9us2kq
p3579
aV9tia6m
p3580
aV9wle8q
p3581
aV9t7nhb
p3582
aV9tvybw
p3583
aV9u5kdw
p3584
aV9tzxf0
p3585
aV9u7mbn
p3586
aV9uan25
p3587
aV9vbqwq
p3588
aV9s60gj
p3589
aV9tzgc4
p3590
aV9v8l2g
p3591
aV9tdffb
p3592
aV9tvfff
p3593
aV9tl6as
p3594
aV9vkaen
p3595
aV9t9ei8
p3596
aV9vm8w2
p3597
aV9wkm9n
p3598
aV9u5mz0
p3599
aV9sfinj
p3600
aV9vzbk0
p3601
aV9tjjiv
p3602
aV9sj99b
p3603
aV9s4udx
p3604
aV9vgapc
p3605
aV9tuoc9
p3606
aV9sj2ht
p3607
aV9vrupj
p3608
aV9wqw0y
p3609
aV9tahfq
p3610
aV9sgihh
p3611
aV9vr7zk
p3612
aV9shi0a
p3613
aV9us7e9
p3614
aV9v5jb9
p3615
aV9vxrso
p3616
aV9urlnu
p3617
aV9tbeu9
p3618
aV9wt7zw
p3619
aV9ueme6
p3620
aV9u7gpd
p3621
aV9vnxwx
p3622
aV9urt1o
p3623
aV9t0gmy
p3624
aV9upxju
p3625
aV9t7k5y
p3626
aV9t0o2z
p3627
aV9ut3gd
p3628
aV9u2i2h
p3629
aV9tcztj
p3630
aV9slxci
p3631
aV9ufhy4
p3632
aV9v39g4
p3633
aV9szqev
p3634
aV9uart5
p3635
aV9t4izo
p3636
aV9vvd5i
p3637
aV9w8em3
p3638
aV9w9eaq
p3639
aV9uwz2g
p3640
aV9w4bjq
p3641
aV9tjkwe
p3642
aV9sqlyx
p3643
aV9u308v
p3644
aV9t8f5p
p3645
aV9tart6
p3646
aV9vmhup
p3647
aV9sl7wq
p3648
aV9us5fh
p3649
aV9uqjks
p3650
aV9u4xwv
p3651
aV9t40lu
p3652
aV9vexkp
p3653
aV9wq4s8
p3654
aV9vmv0q
p3655
aV9vjx7h
p3656
aV9ujv1j
p3657
aV9vcys9
p3658
aV9uelid
p3659
aV9vyllq
p3660
aV9rzues
p3661
aV9val88
p3662
aV9u5qsa
p3663
aV9s5mzm
p3664
aV9vpulx
p3665
aV9u87f8
p3666
aV9w6bs3
p3667
aV9um4xl
p3668
aV9w294m
p3669
aV9tpjgp
p3670
aV9wim1c
p3671
aV9wjb2v
p3672
aV9tdz1e
p3673
aV9t2lx1
p3674
aV9val46
p3675
aV9u4zee
p3676
aV9vxdt6
p3677
aV9uputj
p3678
aV9vebxo
p3679
aV9vkmz4
p3680
aV9umzmr
p3681
aV9syqat
p3682
aV9wrjcl
p3683
aV9v1duh
p3684
aV9umr6o
p3685
aV9tbtia
p3686
aV9uqly5
p3687
aV9tr9pv
p3688
aV9tj2h9
p3689
aV9u8jxi
p3690
aV9ugqeb
p3691
aV9v8yzq
p3692
aV9w5xly
p3693
aV9vl4yo
p3694
aV9tf2v4
p3695
aV9u72ip
p3696
aV9t1jrv
p3697
aV9sjrid
p3698
aV9szi25
p3699
aV9tgxnc
p3700
aV9t26kn
p3701
aV9sccbf
p3702
aV9so7mj
p3703
aV9sgyl9
p3704
aV9sx2y1
p3705
aV9vydl4
p3706
aV9v98p7
p3707
aV9tip86
p3708
aV9tkz3a
p3709
aV9w6yz5
p3710
aV9t2d0m
p3711
aV9wom5q
p3712
aV9umnpc
p3713
aV9v6iab
p3714
aV9t8y03
p3715
aV9tvu0f
p3716
aV9woniw
p3717
aV9wpfk7
p3718
aV9wj80y
p3719
aV9ujg24
p3720
aV9w20vm
p3721
aV9thfae
p3722
aV9vjq2f
p3723
aV9uo4ek
p3724
aV9v4nub
p3725
aV9t7v44
p3726
aV9sy64n
p3727
aV9w9in6
p3728
aV9s0lwh
p3729
aV9v4e0n
p3730
aV9ujl5a
p3731
aV9vmiys
p3732
aV9tf4d5
p3733
aV9vmiyq
p3734
aV9tq77t
p3735
aV9tt2hd
p3736
aV9vgmwz
p3737
aV9vqrtd
p3738
aV9wir7o
p3739
aV9sq86i
p3740
aV9uplc1
p3741
aV9uo3m4
p3742
aV9vljt8
p3743
aV9wa46w
p3744
aV9sqhpx
p3745
aV9tzs74
p3746
aV9vwgd1
p3747
aV9szg8q
p3748
aV9vn5tx
p3749
aV9uiy9v
p3750
aV9vh2ns
p3751
aV9wriez
p3752
aV9t0wie
p3753
aV9uzgs9
p3754
aV9tkx3k
p3755
aV9uaaqa
p3756
aV9vv7vp
p3757
aV9vgj9m
p3758
aV9uqjxw
p3759
aV9wrrsf
p3760
aV9tk1zq
p3761
aV9teb4z
p3762
aV9uv197
p3763
aV9sjoyh
p3764
aV9wt3uh
p3765
aV9u50zq
p3766
aV9uekt2
p3767
aV9wgi6l
p3768
aV9sl1xo
p3769
aV9ujijk
p3770
aV9vmfhe
p3771
aV9twu1h
p3772
aV9vf5qy
p3773
aV9wmlfh
p3774
aV9s313f
p3775
aV9w6wp3
p3776
aV9so1xd
p3777
aV9tu8te
p3778
aV9w4c1l
p3779
aV9vs8wd
p3780
aV9vin0f
p3781
aV9w4c1h
p3782
aV9vbsrc
p3783
aV9tn5yy
p3784
aV9ss31n
p3785
aV9v01fv
p3786
aV9smyfz
p3787
aV9sfw82
p3788
aV9vg0op
p3789
aV9sq3k1
p3790
aV9w4c1q
p3791
aV9tokk5
p3792
aV9ugtek
p3793
aV9u85g1
p3794
aV9v1ade
p3795
aV9w7jra
p3796
aV9tzwl2
p3797
aV9w06uz
p3798
aV9whn7c
p3799
aV9wk1uz
p3800
aV9vh3qt
p3801
aV9ujn0q
p3802
aV9u83u4
p3803
aV9szs13
p3804
aV9wd2tx
p3805
aV9uf29u
p3806
aV9vemrv
p3807
aV9udnny
p3808
aV9smxlw
p3809
aV9s2xd9
p3810
aV9vhzc5
p3811
aV9shbcp
p3812
aV9spl1m
p3813
aV9w5pd6
p3814
aV9skxh8
p3815
aV9s66o2
p3816
aV9u01vc
p3817
aV9tw66y
p3818
aV9t327m
p3819
aV9sop0z
p3820
aV9ss3yx
p3821
aV9vmv7q
p3822
aV9tus2u
p3823
aV9t6hwl
p3824
aV9wspnt
p3825
aV9uxs1r
p3826
aV9vpars
p3827
aV9uo821
p3828
aV9t9l27
p3829
aV9v5y6m
p3830
aV9vf6tx
p3831
aV9urkiw
p3832
aV9ta2uz
p3833
aV9tbdlx
p3834
aV9s6hum
p3835
aV9s4tdw
p3836
aV9vdo7g
p3837
aV9v94yk
p3838
aV9w8l1n
p3839
aV9shgyv
p3840
aV9s0xhu
p3841
aV9tlf9w
p3842
aV9srqjg
p3843
aV9wjx8y
p3844
aV9vbpk2
p3845
aV9tas0d
p3846
aV9vhqwk
p3847
aV9tub5o
p3848
aV9u9uri
p3849
aV9sj2je
p3850
aV9wpl1w
p3851
aV9slt92
p3852
aV9sxw5m
p3853
aV9ta4kv
p3854
aV9spgmq
p3855
aV9ul6wm
p3856
aV9vvvov
p3857
aV9sljrd
p3858
aV9uqaty
p3859
aV9u6st2
p3860
aV9wbzo9
p3861
aV9w58op
p3862
aV9ua2td
p3863
aV9sm2ql
p3864
aV9uee77
p3865
aV9t0k52
p3866
aV9soydv
p3867
aV9tv82e
p3868
aV9w2zu2
p3869
aV9wfu5k
p3870
aV9sr3xv
p3871
aV9uyluh
p3872
aV9tbew8
p3873
aV9tk2ew
p3874
aV9w855e
p3875
aV9v1zqg
p3876
aV9wros1
p3877
aV9vw6a2
p3878
aV9wsujf
p3879
aV9vm7ca
p3880
aV9vdnao
p3881
aV9uozh5
p3882
aV9w030p
p3883
aV9tg3zm
p3884
aV9sytuv
p3885
aV9syu6y
p3886
aV9wpntd
p3887
aV9sofyq
p3888
aV9t3l5k
p3889
aV9tk6rq
p3890
aV9v4bk5
p3891
aV9u0su8
p3892
aV9vx18h
p3893
aV9u9uan
p3894
aV9uqc3u
p3895
aV9sihtk
p3896
aV9tpo6x
p3897
aV9u4a99
p3898
aV9s7y6e
p3899
aV9sjbfe
p3900
aV9w4bhg
p3901
aV9spujc
p3902
aV9vxex6
p3903
aV9tbuhd
p3904
aV9v4glb
p3905
aV9stgpj
p3906
aV9t9y6f
p3907
aV9s51ac
p3908
aV9sgk5n
p3909
aV9wj7ux
p3910
aV9ugq6m
p3911
aV9t9xpm
p3912
aV9upd97
p3913
aV9u144i
p3914
aV9t49d6
p3915
aV9wq746
p3916
aV9ttbba
p3917
aV9ux7wi
p3918
aV9tef52
p3919
aV9wpy7u
p3920
aV9u3mos
p3921
aV9voz43
p3922
aV9v0inv
p3923
aV9v5zae
p3924
aV9u3n2k
p3925
aV9s77za
p3926
aV9tm9uh
p3927
aV9v05wh
p3928
aV9wi12k
p3929
aV9uhtr5
p3930
aV9svrx7
p3931
aV9tikj9
p3932
aV9sxdjj
p3933
aV9tp4y1
p3934
aV9w8t3v
p3935
aV9un6vx
p3936
aV9ubozf
p3937
aV9v4y7d
p3938
aV9sgzcn
p3939
aV9vu8hk
p3940
aV9w57gj
p3941
aV9sinfz
p3942
aV9vtevp
p3943
aV9sz42x
p3944
aV9txy8k
p3945
aV9tza7w
p3946
aV9tjb3e
p3947
aV9ue8m5
p3948
aV9t9zz5
p3949
aV9tn0t5
p3950
aV9wrgek
p3951
aV9ukxna
p3952
aV9vg512
p3953
aV9uyrh0
p3954
aV9szuk0
p3955
aV9sp909
p3956
aV9sgqn2
p3957
aV9tokvy
p3958
aV9sqk5d
p3959
aV9ulg7m
p3960
aV9ulr6b
p3961
aV9w5mqo
p3962
aV9uieyr
p3963
aV9salt1
p3964
aV9wj8le
p3965
aV9v3q9l
p3966
aV9ut9h4
p3967
aV9u87dh
p3968
aV9uk1xp
p3969
aV9to49v
p3970
aV9vcg6b
p3971
aV9tu7ot
p3972
aV9vp6xr
p3973
aV9t4a3c
p3974
aV9sy4rg
p3975
aV9u8wbq
p3976
aV9vf9kb
p3977
aV9wa3r9
p3978
aV9uy7b0
p3979
aV9wqxu7
p3980
aV9wt880
p3981
aV9w3xx0
p3982
aV9sjhqg
p3983
aV9sp8vj
p3984
aV9whutc
p3985
aV9va852
p3986
aV9v0cdr
p3987
aV9vmwb7
p3988
aV9t0fpr
p3989
aV9tw6pp
p3990
aV9ufgp8
p3991
aV9ut023
p3992
aV9up0lv
p3993
aV9vber4
p3994
aV9vgmug
p3995
aV9siuol
p3996
aV9urqt6
p3997
aV9sof1m
p3998
aV9vxwwy
p3999
aV9w7hmt
p4000
aV9ueh6b
p4001
aV9uryzo
p4002
aV9u3zeq
p4003
aV9wjzbm
p4004
aV9vd9so
p4005
aV9vyckg
p4006
aV9t3yy3
p4007
aV9vburz
p4008
aV9tca7n
p4009
aV9seqvg
p4010
aV9tnyfu
p4011
aV9tx7de
p4012
aV9uwhfu
p4013
aV9sse89
p4014
aV9tkjvz
p4015
aV9u7s0u
p4016
aV9vb8hk
p4017
aV9vdxux
p4018
aV9spclb
p4019
aV9v0j5y
p4020
aV9ufnxh
p4021
aV9tpynq
p4022
aV9uf4i3
p4023
aV9u7402
p4024
aV9t3yyw
p4025
aV9t94wo
p4026
aV9uq7ys
p4027
aV9uqg88
p4028
aV9t33u9
p4029
aV9vvpp4
p4030
aV9ttjlp
p4031
aV9wika5
p4032
aV9u8ugs
p4033
aV9t6z32
p4034
aV9usyti
p4035
aV9we2id
p4036
aV9uiz0p
p4037
aV9vpj3r
p4038
aV9v3o40
p4039
aV9ur1gt
p4040
aV9uooly
p4041
aV9t8hko
p4042
aV9s4ats
p4043
aV9v1gtq
p4044
aV9slc3s
p4045
aV9wsy82
p4046
aV9sdxlo
p4047
aV9t6j3t
p4048
aV9t9b2g
p4049
aV9v4mbx
p4050
aV9tran8
p4051
aV9v2i0c
p4052
aV9u2mrd
p4053
aV9vvglo
p4054
aV9s7eqf
p4055
aV9vy935
p4056
aV9u9118
p4057
aV9t3t46
p4058
aV9tqjx4
p4059
aV9tak1m
p4060
aV9t22l4
p4061
aV9uxjjd
p4062
aV9sijqu
p4063
aV9s765u
p4064
aV9v1wta
p4065
aV9wqun1
p4066
aV9tlgeu
p4067
aV9v2ed6
p4068
aV9srn92
p4069
aV9sngo0
p4070
aV9tpopv
p4071
aV9tqsz1
p4072
aV9vu445
p4073
aV9u4b2b
p4074
aV9thicy
p4075
aV9s0x5t
p4076
aV9tncim
p4077
aV9u1n5g
p4078
aV9u4w48
p4079
aV9szq92
p4080
aV9t8fqm
p4081
aV9vs136
p4082
aV9siv1q
p4083
aV9v5o4b
p4084
aV9uhk3v
p4085
aV9sio0z
p4086
aV9ttmyu
p4087
aV9upj7k
p4088
aV9w5jr0
p4089
aV9w6bja
p4090
aV9t0rqx
p4091
aV9u2fc0
p4092
aV9t0du2
p4093
aV9vsdiw
p4094
aV9w38ej
p4095
aV9wg4wd
p4096
aV9shqq6
p4097
aV9w1ast
p4098
aV9sriqi
p4099
aV9w4pdt
p4100
aV9uh0y2
p4101
aV9v6a09
p4102
aV9s63c1
p4103
aV9vmuc9
p4104
aV9uakzp
p4105
aV9uv2u1
p4106
aV9tcmns
p4107
aV9uezx4
p4108
aV9u81mj
p4109
aV9tmvvp
p4110
aV9u2hf8
p4111
aV9tqz0e
p4112
aV9uv0wx
p4113
aV9tqt6s
p4114
aV9vwtis
p4115
aV9saomx
p4116
aV9t6kmi
p4117
aV9vtkes
p4118
aV9u7wtu
p4119
aV9t08z3
p4120
aV9ubhqv
p4121
aV9v4ext
p4122
aV9tt0rc
p4123
aV9sod2o
p4124
aV9vbv9p
p4125
aV9wifq1
p4126
aV9sys7p
p4127
aV9u70lg
p4128
aV9v10h1
p4129
aV9tqj0l
p4130
aV9w7n1o
p4131
aV9wrd9p
p4132
aV9tnpkz
p4133
aV9twh53
p4134
aV9tn8o1
p4135
aV9s5121
p4136
aV9v0rm7
p4137
aV9u81ry
p4138
aV9t92wd
p4139
aV9v4ex2
p4140
aV9vzb27
p4141
aV9wpl33
p4142
aV9vlbea
p4143
aV9vdzvl
p4144
aV9svnf1
p4145
aV9vuyjf
p4146
aV9vkdfh
p4147
aV9uf9lm
p4148
aV9v4orj
p4149
aV9uvx8o
p4150
aV9vt2jb
p4151
aV9vnpk1
p4152
aV9vn7j9
p4153
aV9u41ak
p4154
aV9t1yp3
p4155
aV9vp2z8
p4156
aV9u961v
p4157
aV9t4ike
p4158
aV9t18pt
p4159
aV9s7azs
p4160
aV9v0gg0
p4161
aV9wkkj6
p4162
aV9wp8pn
p4163
aV9vvgb4
p4164
aV9vqnmc
p4165
aV9t4f7p
p4166
aV9twad6
p4167
aV9tzcs5
p4168
aV9shpji
p4169
aV9wix1i
p4170
aV9sqles
p4171
aV9utq5a
p4172
aV9w915l
p4173
aV9tp7ae
p4174
aV9wa6sj
p4175
aV9v4gbf
p4176
aV9ut92z
p4177
aV9u2r1u
p4178
aV9uz5sn
p4179
aV9t8g85
p4180
aV9uue4v
p4181
aV9w1do9
p4182
aV9tv1wk
p4183
aV9v2qde
p4184
aV9tyuq3
p4185
aV9tnsjd
p4186
aV9v07cv
p4187
aV9vj0e1
p4188
aV9wiw5q
p4189
aV9uj0ed
p4190
aV9wrfku
p4191
aV9t8xvd
p4192
aV9v53m4
p4193
aV9u0i8v
p4194
aV9vakxg
p4195
aV9v0yq2
p4196
aV9s3o3l
p4197
aV9ws94d
p4198
aV9uizzl
p4199
aV9snzmr
p4200
aV9us1wn
p4201
aV9tdg8g
p4202
aV9vy5ah
p4203
aV9va1kr
p4204
aV9vn8m5
p4205
aV9t9zx8
p4206
aV9s5kp7
p4207
aV9t0vv6
p4208
aV9tu21j
p4209
aV9w8kwo
p4210
aV9svby9
p4211
aV9spqxo
p4212
aV9uxvs9
p4213
aV9sr3pp
p4214
aV9wm90m
p4215
aV9tc4j8
p4216
aV9u5gqh
p4217
aV9ws1qu
p4218
aV9srnr1
p4219
aV9t4hm6
p4220
aV9vd9ek
p4221
aV9sthcv
p4222
aV9udra5
p4223
aV9uubz8
p4224
aV9vzu79
p4225
aV9sigxo
p4226
aV9w3k7v
p4227
aV9ta5rm
p4228
aV9sv51o
p4229
aV9wqryr
p4230
aV9sy9pn
p4231
aV9tbpii
p4232
aV9utk07
p4233
aV9vwg5h
p4234
aV9w1ydd
p4235
aV9sqghp
p4236
aV9vr3sw
p4237
aV9v3ncr
p4238
aV9urixx
p4239
aV9ur4f0
p4240
aV9tvmwx
p4241
aV9vmno5
p4242
aV9una73
p4243
aV9vnupx
p4244
aV9spobb
p4245
aV9uexi1
p4246
aV9upeyy
p4247
aV9sw7a3
p4248
aV9w1exe
p4249
aV9ur3lx
p4250
aV9whfxw
p4251
aV9ussht
p4252
aV9sy8tj
p4253
aV9tz7k5
p4254
aV9sy8tn
p4255
aV9urgs6
p4256
aV9vqjgu
p4257
aV9tki82
p4258
aV9sgbpq
p4259
aV9w0gt8
p4260
aV9uflvx
p4261
aV9s7md0
p4262
aV9vaah2
p4263
aV9ta21c
p4264
aV9vgucu
p4265
aV9tdx6s
p4266
aV9tzmr4
p4267
aV9ug9ms
p4268
aV9u4oiu
p4269
aV9skyk4
p4270
aV9tq1l8
p4271
aV9uxh52
p4272
aV9u39mi
p4273
aV9tm744
p4274
aV9vfn75
p4275
aV9unz21
p4276
aV9vukd7
p4277
aV9w8sfv
p4278
aV9v113h
p4279
aV9urqxk
p4280
aV9sqfv0
p4281
aV9ujsx2
p4282
aV9snx7w
p4283
aV9tbsy0
p4284
aV9w5hxt
p4285
aV9unlyf
p4286
aV9ugnpj
p4287
aV9vurxo
p4288
aV9wg99b
p4289
aV9v6fa9
p4290
aV9uiyhf
p4291
aV9skndj
p4292
aV9w2nga
p4293
aV9uplo2
p4294
aV9vw1xe
p4295
aV9vvv3n
p4296
aV9ur34w
p4297
aV9vvwts
p4298
aV9uesxg
p4299
aV9vnl7x
p4300
aV9vovl9
p4301
aV9vpfw3
p4302
aV9tkqpt
p4303
aV9wj820
p4304
aV9utcxr
p4305
aV9w4urb
p4306
aV9wpqnh
p4307
aV9shukv
p4308
aV9ueyr2
p4309
aV9whbsv
p4310
aV9v3a4k
p4311
aV9t2m5l
p4312
aV9sol35
p4313
aV9vpqi4
p4314
aV9v09rc
p4315
aV9uhrs3
p4316
aV9vdpmx
p4317
aV9ugzcx
p4318
aV9uh78c
p4319
aV9v4ee3
p4320
aV9srseg
p4321
aV9urryq
p4322
aV9vwbx8
p4323
aV9tb17r
p4324
aV9ug78x
p4325
aV9u6xxx
p4326
aV9vwdfd
p4327
aV9vvf3o
p4328
aV9u5upl
p4329
aV9suuw6
p4330
aV9tkyar
p4331
aV9wl5yk
p4332
aV9s6t4t
p4333
aV9u01r2
p4334
aV9ws55u
p4335
aV9w69ql
p4336
aV9s58jb
p4337
aV9szhsi
p4338
aV9svfrp
p4339
aV9t8w71
p4340
aV9ug7ca
p4341
aV9vy7bh
p4342
aV9u8x9z
p4343
aV9vmgb5
p4344
aV9u58vd
p4345
aV9w3j91
p4346
aV9vblc4
p4347
aV9vblc7
p4348
aV9wdm06
p4349
aV9szjid
p4350
aV9ts36g
p4351
aV9u5lki
p4352
aV9v0c2o
p4353
aV9u7tho
p4354
aV9wt780
p4355
aV9w7l5c
p4356
aV9tqcd9
p4357
aV9so5h3
p4358
aV9uddsg
p4359
aV9tvqxe
p4360
aV9tk7ok
p4361
aV9tf3eq
p4362
aV9tpehs
p4363
aV9wpmq1
p4364
aV9vkckk
p4365
aV9t0dw4
p4366
aV9sgoxp
p4367
aV9t8lyn
p4368
aV9wpe41
p4369
aV9wg4uo
p4370
aV9tx27l
p4371
aV9s5wze
p4372
aV9tnkws
p4373
aV9vck3d
p4374
aV9tbz3d
p4375
aV9vp5q1
p4376
aV9sg6ii
p4377
aV9tpxgb
p4378
aV9sogvt
p4379
aV9tweg7
p4380
aV9sj59s
p4381
aV9v0myc
p4382
aV9vavdy
p4383
aV9t2kkp
p4384
aV9shgei
p4385
aV9wlswv
p4386
aV9v1juu
p4387
aV9wmayu
p4388
aV9sdv5h
p4389
aV9tydpw
p4390
aV9u70nj
p4391
aV9sejpz
p4392
aV9uabjc
p4393
aV9t2wna
p4394
aV9t08t5
p4395
aV9tlueh
p4396
aV9spgif
p4397
aV9vv2qm
p4398
aV9vyb0l
p4399
aV9v3wuc
p4400
aV9vqb2x
p4401
aV9vdr2b
p4402
aV9uedax
p4403
aV9si9h0
p4404
aV9stpin
p4405
aV9twysy
p4406
aV9ui3j5
p4407
aV9sppmj
p4408
aV9s5ls8
p4409
aV9vzm77
p4410
aV9vc3y7
p4411
aV9u2phx
p4412
aV9sr3dk
p4413
aV9v10vc
p4414
aV9u5638
p4415
aV9ss5c2
p4416
aV9we6n9
p4417
aV9uylqw
p4418
aV9seer6
p4419
aV9ur8wn
p4420
aV9udxdq
p4421
aV9snqj8
p4422
aV9w56yt
p4423
aV9uegai
p4424
aV9w3g3l
p4425
aV9tfa0a
p4426
aV9tq7uh
p4427
aV9s2yka
p4428
aV9u6mtv
p4429
aV9uemkg
p4430
aV9vcdm1
p4431
aV9werzy
p4432
aV9te46j
p4433
aV9scuaq
p4434
aV9w9nun
p4435
aV9wjufi
p4436
aV9udzva
p4437
aV9vlfsb
p4438
aV9symn0
p4439
aV9uss2s
p4440
aV9vh6ut
p4441
aV9t6v4a
p4442
aV9v0h47
p4443
aV9vw6ej
p4444
aV9szipz
p4445
aV9tkfqm
p4446
aV9szd0k
p4447
aV9v5hg1
p4448
aV9vy018
p4449
aV9sib3y
p4450
aV9tmuql
p4451
aV9uym9q
p4452
aV9smckx
p4453
aV9sib3b
p4454
aV9vzjvh
p4455
aV9uyr6s
p4456
aV9t9xlt
p4457
aV9tmxwm
p4458
aV9veee5
p4459
aV9v5l6w
p4460
aV9tv9y9
p4461
aV9senow
p4462
aV9vaipe
p4463
aV9uflky
p4464
aV9uf15r
p4465
aV9tx51e
p4466
aV9vdx1o
p4467
aV9t2fty
p4468
aV9tbz33
p4469
aV9vxonp
p4470
aV9slmnn
p4471
aV9vpdtj
p4472
aV9vz0bi
p4473
aV9vhxq6
p4474
aV9u6blb
p4475
aV9s3vei
p4476
aV9wkfo7
p4477
aV9vnq16
p4478
aV9tbl80
p4479
aV9st5lo
p4480
aV9ustxc
p4481
aV9tjnyu
p4482
aV9t2u46
p4483
aV9vvdes
p4484
aV9tb365
p4485
aV9whmx1
p4486
aV9vs327
p4487
aV9v2m7h
p4488
aV9u5go5
p4489
aV9ty64k
p4490
aV9tr9ag
p4491
aV9wrt2a
p4492
aV9w6xr2
p4493
aV9tmrur
p4494
aV9woz21
p4495
aV9wrt2w
p4496
aV9snvka
p4497
aV9vtsr6
p4498
aV9t8hpr
p4499
aV9v1pw3
p4500
aV9sft6e
p4501
aV9s78kb
p4502
aV9u7dnk
p4503
aV9wqzwc
p4504
aV9suwjz
p4505
aV9u5yym
p4506
aV9ugqoy
p4507
aV9u5yyx
p4508
aV9vmsjh
p4509
aV9w6gyg
p4510
aV9w5cqm
p4511
aV9sp94y
p4512
aV9uuj24
p4513
aV9sykpz
p4514
aV9u9ty4
p4515
aV9vua9x
p4516
aV9t3uao
p4517
aV9uk88m
p4518
aV9t9t53
p4519
aV9uujd6
p4520
aV9w5cck
p4521
aV9w5kqk
p4522
aV9u66ok
p4523
aV9t1q61
p4524
aV9shef2
p4525
aV9ukpb5
p4526
aV9woheb
p4527
aV9w3ptb
p4528
aV9s2lah
p4529
aV9tmahk
p4530
aV9v2li9
p4531
aV9u7ocs
p4532
aV9u7d57
p4533
aV9uq2j0
p4534
aV9skw1t
p4535
aV9twuzc
p4536
aV9txka4
p4537
aV9tz9gx
p4538
aV9tauva
p4539
aV9v8e2f
p4540
aV9vz63d
p4541
aV9sssfj
p4542
aV9ueh2r
p4543
aV9w5cc4
p4544
aV9tts9z
p4545
aV9v1g8x
p4546
aV9u2o0t
p4547
aV9vkwel
p4548
aV9wkig8
p4549
aV9ufsy2
p4550
aV9vfeuv
p4551
aV9t4p8u
p4552
aV9vz3of
p4553
aV9vanq9
p4554
aV9wohuy
p4555
aV9uglxz
p4556
aV9w6d0m
p4557
aV9tgnf9
p4558
aV9smtnj
p4559
aV9u8fjm
p4560
aV9vepo0
p4561
aV9slnw1
p4562
aV9sespj
p4563
aV9tvzlx
p4564
aV9vdxyf
p4565
aV9v0bjd
p4566
aV9ty459
p4567
aV9v4ass
p4568
aV9vh8zg
p4569
aV9ufusi
p4570
aV9t9sux
p4571
aV9smt78
p4572
aV9wohu7
p4573
aV9u6ueh
p4574
aV9u45f5
p4575
aV9uxu2r
p4576
aV9tq64y
p4577
aV9smsri
p4578
aV9swquk
p4579
aV9sp7o1
p4580
aV9tk1px
p4581
aV9tfdcz
p4582
aV9tkrje
p4583
aV9u4gwx
p4584
aV9wijyq
p4585
aV9uhf49
p4586
aV9tqxns
p4587
aV9wmevn
p4588
aV9vg0u9
p4589
aV9tq5vj
p4590
aV9seoqg
p4591
aV9sqd9r
p4592
aV9vz95a
p4593
aV9u22de
p4594
aV9rvsls
p4595
aV9uehja
p4596
aV9u2gx6
p4597
aV9thwah
p4598
aV9w9bt1
p4599
aV9sqx24
p4600
aV9wa8ve
p4601
aV9uunh5
p4602
aV9st53n
p4603
aV9wevpg
p4604
aV9udgps
p4605
aV9vpqk2
p4606
aV9vwhdq
p4607
aV9turt0
p4608
aV9wf9dt
p4609
aV9w5h0e
p4610
aV9u2gxx
p4611
aV9tfv6x
p4612
aV9wqwp6
p4613
aV9w58vo
p4614
aV9t6ivq
p4615
aV9um8yo
p4616
aV9w37hi
p4617
aV9szx9w
p4618
aV9sla80
p4619
aV9v5fqy
p4620
aV9tm4vz
p4621
aV9w7xlo
p4622
aV9t8mhz
p4623
aV9tlgwn
p4624
aV9u670h
p4625
aV9vbg94
p4626
aV9vopt0
p4627
aV9w3o2q
p4628
aV9v9uqi
p4629
aV9s6ypf
p4630
aV9tdrav
p4631
aV9sh9oi
p4632
aV9wt7om
p4633
aV9ve45i
p4634
aV9s76bo
p4635
aV9soefb
p4636
aV9udmnn
p4637
aV9twcc6
p4638
aV9uikzp
p4639
aV9tigy0
p4640
aV9vii9s
p4641
aV9sbbab
p4642
aV9va7bm
p4643
aV9tutrz
p4644
aV9u69fw
p4645
aV9w6gzn
p4646
aV9vxpzf
p4647
aV9vpjb7
p4648
aV9v2ltz
p4649
aV9vwzyo
p4650
aV9u6v3f
p4651
aV9wioal
p4652
aV9wqujp
p4653
aV9upxq3
p4654
aV9tofu7
p4655
aV9vyiqn
p4656
aV9sd7h7
p4657
aV9uib98
p4658
aV9teg7b
p4659
aV9tkt1s
p4660
aV9sh0mc
p4661
aV9vj2d4
p4662
aV9v5h7d
p4663
aV9vdkxt
p4664
aV9t0tio
p4665
aV9vcqh6
p4666
aV9t0zsu
p4667
aV9tu02x
p4668
aV9wq5hv
p4669
aV9ttlc1
p4670
aV9t1ejs
p4671
aV9ubvr4
p4672
aV9smk0e
p4673
aV9te3qj
p4674
aV9wlm0o
p4675
aV9s5unk
p4676
aV9wex9s
p4677
aV9trf0p
p4678
aV9szy12
p4679
aV9ttj3m
p4680
aV9sxujd
p4681
aV9uw6wb
p4682
aV9v4bza
p4683
aV9syesv
p4684
aV9u8yb1
p4685
aV9tu536
p4686
aV9u0rpk
p4687
aV9sp4sg
p4688
aV9wht1t
p4689
aV9tjpw8
p4690
aV9taodu
p4691
aV9s583q
p4692
aV9v13no
p4693
aV9t54a2
p4694
aV9v0dcu
p4695
aV9ufh4b
p4696
aV9tz62r
p4697
aV9uqyy3
p4698
aV9uyj6q
p4699
aV9w70au
p4700
aV9vfg9g
p4701
aV9tktyf
p4702
aV9ufcd7
p4703
aV9wrioh
p4704
aV9ugrtn
p4705
aV9uhwud
p4706
aV9spgkp
p4707
aV9trzcs
p4708
aV9ve0rm
p4709
aV9tvgd2
p4710
aV9w24y8
p4711
aV9tz623
p4712
aV9szc91
p4713
aV9w8kwn
p4714
aV9snpfa
p4715
aV9vadd6
p4716
aV9wmygc
p4717
aV9vy1ay
p4718
aV9szpo4
p4719
aV9s75wj
p4720
aV9ujvqh
p4721
aV9u5rga
p4722
aV9uzbr5
p4723
aV9uzqnh
p4724
aV9vjxwt
p4725
aV9t8sz2
p4726
aV9vztvt
p4727
aV9v5bj6
p4728
aV9tjuap
p4729
aV9swzbd
p4730
aV9suolb
p4731
aV9vpbty
p4732
aV9t9ieu
p4733
aV9w8j7d
p4734
aV9vk9pp
p4735
aV9tl4wa
p4736
aV9tbv0n
p4737
aV9twuab
p4738
aV9tqfzw
p4739
aV9srlwy
p4740
aV9vwoix
p4741
aV9u863v
p4742
aV9sytsj
p4743
aV9u5a3g
p4744
aV9vacot
p4745
aV9v0j9f
p4746
aV9sp6j4
p4747
aV9vw97b
p4748
aV9vfe3b
p4749
aV9sl4ui
p4750
aV9vrh66
p4751
aV9vugic
p4752
aV9tc1rc
p4753
aV9vwsgf
p4754
aV9u8j8r
p4755
aV9wj1aa
p4756
aV9v2zii
p4757
aV9w25ee
p4758
aV9u8j8f
p4759
aV9sn8pr
p4760
aV9u7ox0
p4761
aV9uqf00
p4762
aV9ujnb5
p4763
aV9w3nzy
p4764
aV9v18ic
p4765
aV9t1kjw
p4766
aV9vxdpa
p4767
aV9sk5op
p4768
aV9uywfz
p4769
aV9vxdpn
p4770
aV9unoab
p4771
aV9tjzdt
p4772
aV9tzh7x
p4773
aV9tkmuj
p4774
aV9w6iof
p4775
aV9u47wa
p4776
aV9vyt26
p4777
aV9sqx03
p4778
aV9v0veq
p4779
aV9w4sqc
p4780
aV9vl5um
p4781
aV9sfgec
p4782
aV9uo0q6
p4783
aV9vkh6e
p4784
aV9wc2g1
p4785
aV9wohh9
p4786
aV9tsgyd
p4787
aV9v02kf
p4788
aV9vlob2
p4789
aV9uqfoi
p4790
aV9vvdga
p4791
aV9w6io5
p4792
aV9vvcqb
p4793
aV9w404s
p4794
aV9u638k
p4795
aV9w6ca1
p4796
aV9setrl
p4797
aV9swgyd
p4798
aV9tl1mn
p4799
aV9tjo47
p4800
aV9vbse4
p4801
aV9ufmab
p4802
aV9t8hrh
p4803
aV9wp4on
p4804
aV9ssbb5
p4805
aV9vnw9f
p4806
aV9w88na
p4807
aV9vw49b
p4808
aV9urvt0
p4809
aV9u1l2v
p4810
aV9sufrt
p4811
aV9u85pk
p4812
aV9wn59a
p4813
aV9sykr6
p4814
aV9svekd
p4815
aV9tcaub
p4816
aV9vn25p
p4817
aV9u3nst
p4818
aV9ttxm2
p4819
aV9ujfvu
p4820
aV9ul4zr
p4821
aV9w89vg
p4822
aV9v7mn9
p4823
aV9u97iy
p4824
aV9v1aqy
p4825
aV9tudrg
p4826
aV9vc0o0
p4827
aV9sro7f
p4828
aV9ut51f
p4829
aV9vvc9j
p4830
aV9sosu9
p4831
aV9svkaa
p4832
aV9tdw6u
p4833
aV9sichh
p4834
aV9ud8cq
p4835
aV9sof77
p4836
aV9vjdv5
p4837
aV9uhewm
p4838
aV9w460s
p4839
aV9uox4m
p4840
aV9skw7k
p4841
aV9sk1cv
p4842
aV9tq9hc
p4843
aV9tol0e
p4844
aV9u4ca6
p4845
aV9tb5oc
p4846
aV9u9ew4
p4847
aV9u66m9
p4848
aV9szl40
p4849
aV9wilg1
p4850
aV9sf85v
p4851
aV9vyziv
p4852
aV9vy9qb
p4853
aV9tv0cw
p4854
aV9v06gn
p4855
aV9si1k6
p4856
aV9v9vj5
p4857
aV9tv0cz
p4858
aV9w6k92
p4859
aV9tfazh
p4860
aV9t926q
p4861
aV9w7ltc
p4862
aV9u3bhm
p4863
aV9tb4g1
p4864
aV9w907t
p4865
aV9w7op6
p4866
aV9vjch4
p4867
aV9snelr
p4868
aV9sp9bf
p4869
aV9vhh2t
p4870
aV9vk9zq
p4871
aV9s6od5
p4872
aV9v077q
p4873
aV9w9avl
p4874
aV9uufji
p4875
aV9w8itp
p4876
aV9t1fnm
p4877
aV9uxbo0
p4878
aV9tjnxw
p4879
aV9vy28i
p4880
aV9t8pbl
p4881
aV9vz2eh
p4882
aV9tba1m
p4883
aV9vqui4
p4884
aV9wr98z
p4885
aV9vohi3
p4886
aV9wijup
p4887
aV9wkvn5
p4888
aV9vvoj6
p4889
aV9tt6tc
p4890
aV9spcrb
p4891
aV9s6uhw
p4892
aV9w36h9
p4893
aV9uz2s8
p4894
aV9vahuu
p4895
aV9tnfpr
p4896
aV9sspd0
p4897
aV9s60xx
p4898
aV9v7fwx
p4899
aV9u50bo
p4900
aV9whg8c
p4901
aV9sy7z3
p4902
aV9wmtok
p4903
aV9vxcmp
p4904
aV9v1gn2
p4905
aV9srsao
p4906
aV9vubta
p4907
aV9ud21i
p4908
aV9tqjr8
p4909
aV9vb6tv
p4910
aV9vpfkn
p4911
aV9sysa7
p4912
aV9velh7
p4913
aV9t1uc2
p4914
aV9sfl56
p4915
aV9udj21
p4916
aV9sw3qe
p4917
aV9v3ogt
p4918
aV9tv9bg
p4919
aV9u4uvb
p4920
aV9wot9l
p4921
aV9v2bt6
p4922
aV9u4uvk
p4923
aV9u69d2
p4924
aV9t1l45
p4925
aV9tpg1n
p4926
aV9taba1
p4927
aV9spf3h
p4928
aV9vlf7w
p4929
aV9sikul
p4930
aV9v08x4
p4931
aV9vpxqu
p4932
aV9ua5au
p4933
aV9vcqvc
p4934
aV9vyis2
p4935
aV9vo976
p4936
aV9wfj72
p4937
aV9uzn33
p4938
aV9u7w2g
p4939
aV9vq5ko
p4940
aV9twfi0
p4941
aV9skmkd
p4942
aV9ufp46
p4943
aV9se7jr
p4944
aV9v2xbh
p4945
aV9vm44v
p4946
aV9w0pyh
p4947
aV9ty8t4
p4948
aV9wfj7b
p4949
aV9vkjh8
p4950
aV9t0qgq
p4951
aV9t2hwr
p4952
aV9ts9ck
p4953
aV9w8tsh
p4954
aV9tivmw
p4955
aV9w79bg
p4956
aV9sn8xz
p4957
aV9t00t1
p4958
aV9vmcre
p4959
aV9v24iq
p4960
aV9tj7mr
p4961
aV9so5ld
p4962
aV9ujhib
p4963
aV9vyns3
p4964
aV9sogr9
p4965
aV9unfpk
p4966
aV9ueltk
p4967
aV9toq74
p4968
aV9vje35
p4969
aV9uoljb
p4970
aV9u117u
p4971
aV9t1nsj
p4972
aV9vkl0c
p4973
aV9v9vje
p4974
aV9sr6kr
p4975
aV9vij4i
p4976
aV9vu2us
p4977
aV9up5a1
p4978
aV9vlr4u
p4979
aV9vxdno
p4980
aV9uorpk
p4981
aV9tc3rq
p4982
aV9v3ixr
p4983
aV9s0dtc
p4984
aV9sa1yd
p4985
aV9uyd2e
p4986
aV9upgnt
p4987
aV9smqk5
p4988
aV9swex5
p4989
aV9sirjh
p4990
aV9v1ydo
p4991
aV9uc0bx
p4992
aV9vgkpm
p4993
aV9swmxk
p4994
aV9so4rl
p4995
aV9u5vpp
p4996
aV9va9rj
p4997
aV9vzbaa
p4998
aV9u7811
p4999
aV9u7818
p5000
aV9tjrsy
p5001
aV9v16l8
p5002
aV9sxz8u
p5003
aV9s75is
p5004
aV9sj2b7
p5005
aV9sgqqd
p5006
aV9w5003
p5007
aV9vlgwm
p5008
aV9sgqqp
p5009
aV9toqmp
p5010
aV9spnkh
p5011
aV9szil3
p5012
aV9tkza2
p5013
aV9v36ou
p5014
aV9vd06p
p5015
aV9t3c64
p5016
aV9w9h59
p5017
aV9tiada
p5018
aV9tfbnc
p5019
aV9u4ktb
p5020
aV9vwtg3
p5021
aV9w5qmr
p5022
aV9u9clw
p5023
aV9wrwzq
p5024
aV9srz8a
p5025
aV9u3btf
p5026
aV9wo9uq
p5027
aV9uyin5
p5028
aV9v1b41
p5029
aV9sm1ic
p5030
aV9wp8ny
p5031
aV9tzr1a
p5032
aV9smqj4
p5033
aV9webmr
p5034
aV9u7r6l
p5035
aV9v3lbr
p5036
aV9v21sk
p5037
aV9w49aa
p5038
aV9ttkuo
p5039
aV9vcdaz
p5040
aV9wiy5s
p5041
aV9wolbs
p5042
aV9waalo
p5043
aV9sib7h
p5044
aV9si1t7
p5045
aV9vmd2x
p5046
aV9txbf8
p5047
aV9v2otd
p5048
aV9ttrya
p5049
aV9vxdvc
p5050
aV9t12lo
p5051
aV9uuxfh
p5052
aV9wiktm
p5053
aV9vs0tj
p5054
aV9vcmue
p5055
aV9wr0nl
p5056
aV9vzwvg
p5057
aV9sjifr
p5058
aV9sz8tj
p5059
aV9vcsw0
p5060
aV9wq3rn
p5061
aV9se9ye
p5062
aV9twj8g
p5063
aV9srj8t
p5064
aV9usbfp
p5065
aV9uw451
p5066
aV9v1cmj
p5067
aV9u0b9x
p5068
aV9wleai
p5069
aV9tq3ma
p5070
aV9viysh
p5071
aV9whs36
p5072
aV9uze36
p5073
aV9t17b0
p5074
aV9vceee
p5075
aV9t8whm
p5076
aV9t3i8l
p5077
aV9vvt3t
p5078
aV9ve225
p5079
aV9tcsp6
p5080
aV9sj06i
p5081
aV9ve9c7
p5082
aV9w5o6e
p5083
aV9vd6kw
p5084
aV9u3ug2
p5085
aV9u8rr8
p5086
aV9wf2ya
p5087
aV9u0xey
p5088
aV9u3nq1
p5089
aV9tlhv3
p5090
aV9vf75l
p5091
aV9vmhc7
p5092
aV9tpieh
p5093
aV9w6xvf
p5094
aV9tx4ns
p5095
aV9wj6bf
p5096
aV9v6m3x
p5097
aV9u7sdm
p5098
aV9vh7na
p5099
aV9tndri
p5100
aV9ty359
p5101
aV9vp7xw
p5102
aV9vbn12
p5103
aV9u8e6u
p5104
aV9ujbt7
p5105
aV9spm3h
p5106
aV9sigvs
p5107
aV9ujjdx
p5108
aV9vtk71
p5109
aV9v3pg9
p5110
aV9t4ulr
p5111
aV9upohc
p5112
aV9vvp0f
p5113
aV9veu2h
p5114
aV9tqkof
p5115
aV9sl8qh
p5116
aV9w06fu
p5117
aV9tmkbr
p5118
aV9s7db2
p5119
aV9vqhoq
p5120
aV9tmkbi
p5121
aV9upslz
p5122
aV9srklq
p5123
aV9vyxql
p5124
aV9uiu42
p5125
aV9tz7ut
p5126
aV9wp9i2
p5127
aV9wfvc8
p5128
aV9vw7j6
p5129
aV9un2m1
p5130
aV9vxp49
p5131
aV9so6sn
p5132
aV9tghts
p5133
aV9wgixt
p5134
aV9uruof
p5135
aV9tt2fe
p5136
aV9sq12h
p5137
aV9ufmgd
p5138
aV9tjt1j
p5139
aV9ufmgi
p5140
aV9w83bf
p5141
aV9utkgp
p5142
aV9va25r
p5143
aV9veh92
p5144
aV9tuib4
p5145
aV9vv7h9
p5146
aV9wjoqh
p5147
aV9sc21x
p5148
aV9srjp5
p5149
aV9vv49z
p5150
aV9td0gm
p5151
aV9vm5ha
p5152
aV9utuik
p5153
aV9vgo65
p5154
aV9t30c8
p5155
aV9vv944
p5156
aV9vqiwk
p5157
aV9ttm7n
p5158
aV9va5u2
p5159
aV9wp27k
p5160
aV9vc719
p5161
aV9udvs0
p5162
aV9uplio
p5163
aV9vkuz3
p5164
aV9uu62u
p5165
aV9wdlja
p5166
aV9txjyd
p5167
aV9tgvbs
p5168
aV9vxay4
p5169
aV9tqba9
p5170
aV9ttqxs
p5171
aV9vxjxm
p5172
aV9wrukv
p5173
aV9t8pcq
p5174
aV9vbcdg
p5175
aV9wjbi8
p5176
aV9vgo6x
p5177
aV9vu7hv
p5178
aV9w1yna
p5179
aV9vc522
p5180
aV9vn6zg
p5181
aV9t6x5t
p5182
aV9tqzp3
p5183
aV9vg15h
p5184
aV9vbzot
p5185
aV9tbxc8
p5186
aV9v4aw7
p5187
aV9uguwj
p5188
aV9s3bh6
p5189
aV9vmm22
p5190
aV9vq4i1
p5191
aV9u954q
p5192
aV9vbiv7
p5193
aV9vga4b
p5194
aV9wt6ko
p5195
aV9ugrmv
p5196
aV9tf549
p5197
aV9uphux
p5198
aV9so1ra
p5199
aV9v40lm
p5200
aV9vwx27
p5201
aV9wnov9
p5202
aV9ur14n
p5203
aV9uunl4
p5204
aV9t31cp
p5205
aV9w4xnp
p5206
aV9s62dt
p5207
aV9tvq6g
p5208
aV9tsm9v
p5209
aV9twzpk
p5210
aV9tfhst
p5211
aV9u7i21
p5212
aV9uob6d
p5213
aV9valom
p5214
aV9u5xrf
p5215
aV9tzv8z
p5216
aV9tt5p8
p5217
aV9wbk7q
p5218
aV9vdzcl
p5219
aV9vc0qs
p5220
aV9voysx
p5221
aV9to4b5
p5222
aV9vmxdw
p5223
aV9tony0
p5224
aV9wquf9
p5225
aV9tv7lf
p5226
aV9ug7i6
p5227
aV9tjv2t
p5228
aV9uwt92
p5229
aV9tsaxz
p5230
aV9u43d3
p5231
aV9v5eoi
p5232
aV9v675y
p5233
aV9uzki9
p5234
aV9t0kw2
p5235
aV9u55jq
p5236
aV9uq44q
p5237
aV9wirq6
p5238
aV9vcf4w
p5239
aV9t9oln
p5240
aV9suuqk
p5241
aV9teoto
p5242
aV9s66pq
p5243
aV9u69bw
p5244
aV9u7w4y
p5245
aV9v6bgs
p5246
aV9uppeq
p5247
aV9vcajt
p5248
aV9vqifs
p5249
aV9t3wm1
p5250
aV9sisgk
p5251
aV9u6am0
p5252
aV9sf3h1
p5253
aV9txhjz
p5254
aV9tjpsa
p5255
aV9vlb6c
p5256
aV9vp5wh
p5257
aV9vhe7i
p5258
aV9v24kp
p5259
aV9sr6m0
p5260
aV9vgraq
p5261
aV9vot5y
p5262
aV9t8bmj
p5263
aV9vmjad
p5264
aV9sf334
p5265
aV9wk7hn
p5266
aV9ufgta
p5267
aV9wlpsu
p5268
aV9v5e2r
p5269
aV9sevvc
p5270
aV9ttloh
p5271
aV9wq7vo
p5272
aV9ugbp7
p5273
aV9tx74m
p5274
aV9sjeyr
p5275
aV9ta2c3
p5276
aV9t24v8
p5277
aV9uosp1
p5278
aV9w00e8
p5279
aV9ubhyo
p5280
aV9upglz
p5281
aV9sdi8p
p5282
aV9tv56h
p5283
aV9snh66
p5284
aV9vuu2d
p5285
aV9sni51
p5286
aV9wdpjw
p5287
aV9vzl78
p5288
aV9uz7f2
p5289
aV9v32i7
p5290
aV9tqldx
p5291
aV9tuh78
p5292
aV9tlikq
p5293
aV9w6hh9
p5294
aV9w782p
p5295
aV9vllon
p5296
aV9v4irq
p5297
aV9vtu0e
p5298
aV9sk4zq
p5299
aV9wa7st
p5300
aV9tbjov
p5301
aV9t9u3u
p5302
aV9vnffe
p5303
aV9trzo9
p5304
aV9vmcpf
p5305
aV9tujf4
p5306
aV9so4p4
p5307
aV9w7n93
p5308
aV9vwsaz
p5309
aV9sysjm
p5310
aV9w7gko
p5311
aV9vg8fb
p5312
aV9u64f0
p5313
aV9subjb
p5314
aV9wpefl
p5315
aV9w0rbp
p5316
aV9uf7vd
p5317
aV9tlldm
p5318
aV9wqx7t
p5319
aV9tvfj0
p5320
aV9w7qck
p5321
aV9tkzcv
p5322
aV9tug22
p5323
aV9srtbx
p5324
aV9ue91w
p5325
aV9utdoa
p5326
aV9tytua
p5327
aV9vyzpp
p5328
aV9tbubp
p5329
aV9s74ct
p5330
aV9w5fny
p5331
aV9uh6wc
p5332
aV9udeix
p5333
aV9w6v3k
p5334
aV9tlo22
p5335
aV9tuwg2
p5336
aV9w6m8a
p5337
aV9vqgxc
p5338
aV9tjcy9
p5339
aV9sz1u0
p5340
aV9tc3pp
p5341
aV9s4d6j
p5342
aV9unoer
p5343
aV9v3g3u
p5344
aV9t17dw
p5345
aV9vvagb
p5346
aV9vquvg
p5347
aV9ucxve
p5348
aV9tmxmv
p5349
aV9v6iui
p5350
aV9ud396
p5351
aV9tt7wd
p5352
aV9w21mw
p5353
aV9w1598
p5354
aV9vn9ad
p5355
aV9t78f1
p5356
aV9szz4g
p5357
aV9uz0p5
p5358
aV9umgpm
p5359
aV9tnelr
p5360
aV9szz4k
p5361
aV9vgsbe
p5362
aV9uz8o0
p5363
aV9ss1em
p5364
aV9wohl9
p5365
aV9ugow0
p5366
aV9t8jfp
p5367
aV9ueaus
p5368
aV9vzz82
p5369
aV9v6ysk
p5370
aV9t235p
p5371
aV9tgdf3
p5372
aV9skco2
p5373
aV9talfj
p5374
aV9w35k1
p5375
aV9tjn6i
p5376
aV9stvu3
p5377
aV9spd0p
p5378
aV9vb4ck
p5379
aV9v3dqs
p5380
aV9w4cuc
p5381
aV9ugh7m
p5382
aV9vq7vu
p5383
aV9vbn7s
p5384
aV9te86w
p5385
aV9vn1rt
p5386
aV9wdzy4
p5387
aV9tbt9d
p5388
aV9w6p3x
p5389
aV9w8jgr
p5390
aV9v5vfq
p5391
aV9v9f0z
p5392
aV9tq5t8
p5393
aV9s2fq9
p5394
aV9u9lr4
p5395
aV9ugh71
p5396
aV9sigpx
p5397
aV9uqjwh
p5398
aV9vinl9
p5399
aV9so7qp
p5400
aV9u3noa
p5401
aV9ued3t
p5402
aV9ugt97
p5403
aV9t7q7k
p5404
aV9u9tc7
p5405
aV9vvzzf
p5406
aV9t987s
p5407
aV9uhtxf
p5408
aV9so6u3
p5409
aV9ttv67
p5410
aV9tag5j
p5411
aV9v2uxn
p5412
aV9uc4wv
p5413
aV9v7n4r
p5414
aV9t61j0
p5415
aV9u68gf
p5416
aV9u68gc
p5417
aV9vcfzd
p5418
aV9t0lps
p5419
aV9sslex
p5420
aV9w5k0y
p5421
aV9vkf3y
p5422
aV9udpsy
p5423
aV9uvacs
p5424
aV9udi9e
p5425
aV9upzlq
p5426
aV9vq2dr
p5427
aV9ty3ba
p5428
aV9snill
p5429
aV9uyjiy
p5430
aV9uy8uw
p5431
aV9wpf2e
p5432
aV9tj511
p5433
aV9tfg6o
p5434
aV9vyihs
p5435
aV9tp024
p5436
aV9ufmep
p5437
aV9v6s7n
p5438
aV9v3uv3
p5439
aV9ta033
p5440
aV9tw7li
p5441
aV9sobzv
p5442
aV9vx4kk
p5443
aV9tfslj
p5444
aV9w7utu
p5445
aV9uw5rs
p5446
aV9vbkvb
p5447
aV9u4p31
p5448
aV9t7xg8
p5449
aV9v1hbs
p5450
aV9t1003
p5451
aV9vdu4e
p5452
aV9swqsv
p5453
aV9vatms
p5454
aV9sl8i3
p5455
aV9u39ua
p5456
aV9tmmvz
p5457
aV9w84v7
p5458
aV9v1xb7
p5459
aV9t4bk3
p5460
aV9wmeh9
p5461
aV9vq3jg
p5462
aV9ukoyz
p5463
aV9tv694
p5464
aV9vxo05
p5465
aV9uguul
p5466
aV9wm50k
p5467
aV9tcpoo
p5468
aV9ufdof
p5469
aV9rzg6m
p5470
aV9txk7v
p5471
aV9u9sg9
p5472
aV9v5dej
p5473
aV9tnvuf
p5474
aV9twpx9
p5475
aV9sprq4
p5476
aV9usrgb
p5477
aV9tmxj3
p5478
aV9tkkfd
p5479
aV9u9s0j
p5480
aV9tdvwb
p5481
aV9worpw
p5482
aV9shnqw
p5483
aV9wpcsx
p5484
aV9shucx
p5485
aV9v3aa8
p5486
aV9tujnc
p5487
aV9sfeb3
p5488
aV9v2lv7
p5489
aV9utfiy
p5490
aV9vna6h
p5491
aV9twzra
p5492
aV9vkxzz
p5493
aV9vg7i5
p5494
aV9w37rv
p5495
aV9ty96s
p5496
aV9vu357
p5497
aV9sq8ie
p5498
aV9tao7p
p5499
aV9tabe5
p5500
aV9v00xt
p5501
aV9sh2yg
p5502
aV9uixwt
p5503
aV9sbq9k
p5504
aV9vav7q
p5505
aV9vn1jt
p5506
aV9uv8ip
p5507
aV9vfz40
p5508
aV9tr50j
p5509
aV9sx1tn
p5510
aV9tvar8
p5511
aV9vvi4f
p5512
aV9ve3m6
p5513
aV9sq3g3
p5514
aV9vxkq4
p5515
aV9vqyy1
p5516
aV9twkm2
p5517
aV9sl3zw
p5518
aV9vx1d0
p5519
aV9vbp8x
p5520
aV9vmbp6
p5521
aV9wpey8
p5522
aV9vw9q3
p5523
aV9vlrpp
p5524
aV9vlerr
p5525
aV9wrqyw
p5526
aV9tuudk
p5527
aV9u7hc0
p5528
aV9tp0zt
p5529
aV9tnzh4
p5530
aV9v2xn5
p5531
aV9uqa8z
p5532
aV9v39vk
p5533
aV9wfa8h
p5534
aV9vwjpr
p5535
aV9vg83d
p5536
aV9wqkm7
p5537
aV9uu5gd
p5538
aV9woeq5
p5539
aV9stnvw
p5540
aV9vvfdh
p5541
aV9tyu7l
p5542
aV9synom
p5543
aV9tdu5d
p5544
aV9tfzw0
p5545
aV9vz462
p5546
aV9sgwsm
p5547
aV9wpoo7
p5548
aV9taojs
p5549
aV9sq7f1
p5550
aV9sggpe
p5551
aV9uosr5
p5552
aV9sktpa
p5553
aV9vg3ev
p5554
aV9srp3h
p5555
aV9tc59b
p5556
aV9v0mqw
p5557
aV9vns6g
p5558
aV9sn9pi
p5559
aV9vbypz
p5560
aV9t1nog
p5561
aV9tpk5s
p5562
aV9u3rn1
p5563
aV9vyvna
p5564
aV9sxsvv
p5565
aV9u61pd
p5566
aV9ukg13
p5567
aV9vep25
p5568
aV9ssysp
p5569
aV9vbjq0
p5570
aV9vvi0r
p5571
aV9tzp3s
p5572
aV9u559c
p5573
aV9vziy6
p5574
aV9tx5q0
p5575
aV9t2owy
p5576
aV9vi7wx
p5577
aV9t7rl3
p5578
aV9t3x67
p5579
aV9u2yt0
p5580
aV9wi5ym
p5581
aV9tpvme
p5582
aV9v24ts
p5583
aV9vvb7z
p5584
aV9szloa
p5585
aV9t5yw2
p5586
aV9v2if3
p5587
aV9szpkg
p5588
aV9sjd3t
p5589
aV9v32o6
p5590
aV9syly9
p5591
aV9ubwnj
p5592
aV9tkviy
p5593
aV9va9vu
p5594
aV9vy3fh
p5595
aV9vj6bv
p5596
aV9tx5qn
p5597
aV9tyw9d
p5598
aV9wn2uy
p5599
aV9tf3ms
p5600
aV9vcbsk
p5601
aV9wnbhw
p5602
aV9v138w
p5603
aV9udp9r
p5604
aV9uukgz
p5605
aV9w9q0t
p5606
aV9vclun
p5607
aV9tvmdl
p5608
aV9taucj
p5609
aV9tbwvp
p5610
aV9spoq9
p5611
aV9spnoe
p5612
aV9tp5qf
p5613
aV9w9q0h
p5614
aV9t0ita
p5615
aV9wqsql
p5616
aV9vpmz6
p5617
aV9uh4ca
p5618
aV9t1aud
p5619
aV9v21wn
p5620
aV9sra3i
p5621
aV9uop13
p5622
aV9uzv5s
p5623
aV9ujpmy
p5624
aV9w56q5
p5625
aV9voeh1
p5626
aV9ui4hj
p5627
aV9tixwu
p5628
aV9t4hxa
p5629
aV9s4d8y
p5630
aV9tx9cw
p5631
aV9u7r20
p5632
aV9uao1r
p5633
aV9tslvr
p5634
aV9wggjt
p5635
aV9va8q8
p5636
aV9sqppa
p5637
aV9wh1r0
p5638
aV9vbc8k
p5639
aV9u7npv
p5640
aV9ryge7
p5641
aV9tqm6u
p5642
aV9u1or4
p5643
aV9sifjt
p5644
aV9wpw47
p5645
aV9tlchk
p5646
aV9ustpb
p5647
aV9tljtm
p5648
aV9wsjs1
p5649
aV9vwv7g
p5650
aV9tlqii
p5651
aV9u689f
p5652
aV9vg5z1
p5653
aV9wphfr
p5654
aV9v2h6z
p5655
aV9sj6bf
p5656
aV9u73cl
p5657
aV9wgv0i
p5658
aV9uhjpn
p5659
aV9tckds
p5660
aV9w6noa
p5661
aV9ta5x7
p5662
aV9td9xn
p5663
aV9umz49
p5664
aV9wrtjl
p5665
aV9upwlw
p5666
aV9ss5ph
p5667
aV9ss6rm
p5668
aV9vaobh
p5669
aV9tsos6
p5670
aV9w0nuw
p5671
aV9uzlwc
p5672
aV9t4u5t
p5673
aV9sk7wr
p5674
aV9t95xk
p5675
aV9vx2ca
p5676
aV9ws47d
p5677
aV9vjykz
p5678
aV9w05l3
p5679
aV9wsr4g
p5680
aV9w4wc2
p5681
aV9v3viy
p5682
aV9uenmk
p5683
aV9tugd9
p5684
aV9ut38d
p5685
aV9wrjq7
p5686
aV9wm4j8
p5687
aV9ws88t
p5688
aV9teecf
p5689
aV9wmvxs
p5690
aV9w8i6i
p5691
aV9szgbk
p5692
aV9uqy7d
p5693
aV9ua394
p5694
aV9sivmb
p5695
aV9syar9
p5696
aV9wiph9
p5697
aV9ttsfd
p5698
aV9srd8p
p5699
aV9u8zm7
p5700
aV9tw6lz
p5701
aV9uo7gy
p5702
aV9ur3vj
p5703
aV9sex89
p5704
aV9va7wf
p5705
aV9sohj1
p5706
aV9u7o6m
p5707
aV9vvkd0
p5708
aV9w43ip
p5709
aV9w20x4
p5710
aV9vwl03
p5711
aV9sp0rr
p5712
aV9u91ul
p5713
aV9uz1u4
p5714
aV9vkozc
p5715
aV9tx1n2
p5716
aV9utkkp
p5717
aV9t9bvf
p5718
aV9u4yml
p5719
aV9vde67
p5720
aV9tp22z
p5721
aV9tx7ph
p5722
aV9vt9b8
p5723
aV9wg3rn
p5724
aV9t4bip
p5725
aV9usgut
p5726
aV9sizaj
p5727
aV9tx0dz
p5728
aV9wqjih
p5729
aV9sttz6
p5730
aV9vqmhi
p5731
aV9wa9tv
p5732
aV9wpkq1
p5733
aV9s1yqz
p5734
aV9t24oa
p5735
aV9u9z9j
p5736
aV9vynd0
p5737
aV9vqx57
p5738
aV9v4bgf
p5739
aV9vfnhh
p5740
aV9upxj1
p5741
aV9too90
p5742
aV9txhs7
p5743
aV9tpu6c
p5744
aV9su154
p5745
aV9wixqe
p5746
aV9u1buj
p5747
aV9vvivh
p5748
aV9w2nik
p5749
aV9uh2bq
p5750
aV9w6l8j
p5751
aV9vqx5f
p5752
aV9uiaax
p5753
aV9vem8z
p5754
aV9vqphb
p5755
aV9ut3j5
p5756
aV9w68ha
p5757
aV9wg2rk
p5758
aV9uv3ne
p5759
aV9wo5r8
p5760
aV9wrixq
p5761
aV9w6orr
p5762
aV9va45p
p5763
aV9tfjyh
p5764
aV9vkzfu
p5765
aV9ugzi6
p5766
aV9tyqnv
p5767
aV9vpcif
p5768
aV9sf2ji
p5769
aV9vcoju
p5770
aV9u8si4
p5771
aV9u53xr
p5772
aV9tb3k3
p5773
aV9tt5tg
p5774
aV9ue89d
p5775
aV9txk17
p5776
aV9tkkd2
p5777
aV9vn2j7
p5778
aV9vdecx
p5779
aV9w5hem
p5780
aV9u6b1a
p5781
aV9vafyf
p5782
aV9tnhu4
p5783
aV9vr8an
p5784
aV9upf4u
p5785
aV9vav1i
p5786
aV9ultcv
p5787
aV9tf9qh
p5788
aV9upf4k
p5789
aV9sy3ly
p5790
aV9ut2qi
p5791
aV9ug7mn
p5792
aV9ug7mq
p5793
aV9ut5gz
p5794
aV9tj05o
p5795
aV9t53ie
p5796
aV9tpol3
p5797
aV9tf9q7
p5798
aV9sps56
p5799
aV9vagux
p5800
aV9wp6x6
p5801
aV9u9xo3
p5802
aV9u7adv
p5803
aV9s95ix
p5804
aV9vg2ol
p5805
aV9sf56v
p5806
aV9wgx3v
p5807
aV9u8noh
p5808
aV9wnxge
p5809
aV9ugblq
p5810
aV9uu5yd
p5811
aV9tph2i
p5812
aV9v328t
p5813
aV9u31d1
p5814
aV9ugqsl
p5815
aV9vylci
p5816
aV9u5fdw
p5817
aV9w541h
p5818
aV9urtye
p5819
aV9vwn7d
p5820
aV9urf4t
p5821
aV9vmjbq
p5822
aV9wrnz3
p5823
aV9sphf6
p5824
aV9smvhj
p5825
aV9upaz5
p5826
aV9ufbfd
p5827
aV9uha1u
p5828
aV9w2p1p
p5829
aV9wgpvo
p5830
aV9uhmf9
p5831
aV9tqc3v
p5832
aV9tapae
p5833
aV9sotvp
p5834
aV9ttog9
p5835
aV9vm28t
p5836
aV9ttrdj
p5837
aV9wpuxd
p5838
aV9wlvvh
p5839
aV9vp23r
p5840
aV9swglr
p5841
aV9s75o0
p5842
aV9vdjcq
p5843
aV9s75o9
p5844
aV9sq31v
p5845
aV9who0y
p5846
aV9s4med
p5847
aV9ryx89
p5848
aV9v04nn
p5849
aV9sbpsu
p5850
aV9sreid
p5851
aV9t0yj6
p5852
aV9svw7w
p5853
aV9tuxf6
p5854
aV9u2yzh
p5855
aV9w5gla
p5856
aV9uuzka
p5857
aV9uy4se
p5858
aV9s75or
p5859
aV9uloxa
p5860
aV9tpqbc
p5861
aV9sld60
p5862
aV9tlce3
p5863
aV9vs3la
p5864
aV9wsznx
p5865
aV9sx4fb
p5866
aV9vk6vh
p5867
aV9whrev
p5868
aV9soac3
p5869
aV9vgp2g
p5870
aV9u91j5
p5871
aV9wpu0k
p5872
aV9t32bz
p5873
aV9sdfnz
p5874
aV9txlzx
p5875
aV9vf2za
p5876
aV9v4psf
p5877
aV9uauxl
p5878
aV9uxrca
p5879
aV9t51bn
p5880
aV9u2zxx
p5881
aV9t51bh
p5882
aV9v3lht
p5883
aV9wpfvs
p5884
aV9tqnrm
p5885
aV9tbvpa
p5886
aV9utuah
p5887
aV9szl6k
p5888
aV9u1vlz
p5889
aV9wssfs
p5890
aV9vw4yf
p5891
aV9wad8o
p5892
aV9t6kam
p5893
aV9wlkaj
p5894
aV9td4rv
p5895
aV9tv83p
p5896
aV9uk09w
p5897
aV9siib8
p5898
aV9vgb4l
p5899
aV9tb6rr
p5900
aV9si0to
p5901
aV9tqm4d
p5902
aV9tbaqy
p5903
aV9vouw7
p5904
aV9spwfd
p5905
aV9vxabb
p5906
aV9vo7ui
p5907
aV9ticxl
p5908
aV9twj6p
p5909
aV9sugtf
p5910
aV9tpm61
p5911
aV9uif9z
p5912
aV9vlo1t
p5913
aV9uvfyo
p5914
aV9wq4cj
p5915
aV9vpjig
p5916
aV9vbmsj
p5917
aV9ss1im
p5918
aV9ti56t
p5919
aV9u2v9h
p5920
aV9s70sg
p5921
aV9vui35
p5922
aV9tejko
p5923
aV9vpji5
p5924
aV9vfhiz
p5925
aV9vzfgs
p5926
aV9tx2eo
p5927
aV9u97a7
p5928
aV9w7kem
p5929
aV9vqbd9
p5930
aV9urhbu
p5931
aV9w4z5q
p5932
aV9w4msq
p5933
aV9t2x72
p5934
aV9v1i3u
p5935
aV9v8yjs
p5936
aV9v3v0b
p5937
aV9v8spz
p5938
aV9u99hj
p5939
aV9udiyn
p5940
aV9wjnoc
p5941
aV9t8m6x
p5942
aV9sgtk2
p5943
aV9vlpwm
p5944
aV9u78gv
p5945
aV9u9t4n
p5946
aV9t4ufg
p5947
aV9ts8wc
p5948
aV9vqbdp
p5949
aV9txm0h
p5950
aV9u9t4a
p5951
aV9v9p7n
p5952
aV9swfwa
p5953
aV9t1b90
p5954
aV9w7ke5
p5955
aV9u8qbn
p5956
aV9vuw9y
p5957
aV9t9xfk
p5958
aV9w1bad
p5959
aV9vc4f4
p5960
aV9vip51
p5961
aV9senee
p5962
aV9v8qjf
p5963
aV9vkxar
p5964
aV9t05bf
p5965
aV9tx1lf
p5966
aV9tz9ik
p5967
aV9tfyrv
p5968
aV9syblk
p5969
aV9u7osz
p5970
aV9v416o
p5971
aV9uiu21
p5972
aV9sskcq
p5973
aV9udmzw
p5974
aV9to07d
p5975
aV9wnya7
p5976
aV9v4xwy
p5977
aV9vdfjz
p5978
aV9wn0v8
p5979
aV9uspnj
p5980
aV9t9j3g
p5981
aV9vfr14
p5982
aV9wlvzm
p5983
aV9w8hr4
p5984
aV9vegq7
p5985
aV9w3h0h
p5986
aV9so8sd
p5987
aV9sy6iv
p5988
aV9vdl1o
p5989
aV9stjue
p5990
aV9vtdy5
p5991
aV9sfr0v
p5992
aV9tnlgo
p5993
aV9vq9lw
p5994
aV9t1qgh
p5995
aV9smy6w
p5996
aV9umal6
p5997
aV9t0mp7
p5998
aV9twb0v
p5999
aV9tmv8x
p6000
aV9tspdy
p6001
aV9tb1sf
p6002
aV9t3wuk
p6003
aV9tlyh5
p6004
aV9tgnpe
p6005
aV9u5797
p6006
aV9tiyk4
p6007
aV9vbpc8
p6008
aV9tdevi
p6009
aV9ss9v0
p6010
aV9typ5f
p6011
aV9vhf7p
p6012
aV9w7ad4
p6013
aV9ug9y1
p6014
aV9wmml3
p6015
aV9uq6pj
p6016
aV9w53yy
p6017
aV9w2nka
p6018
aV9vtqw4
p6019
aV9uo5mg
p6020
aV9uhak1
p6021
aV9vyvue
p6022
aV9s5iag
p6023
aV9udvyw
p6024
aV9ss9vf
p6025
aV9w1czq
p6026
aV9th7pq
p6027
aV9rul1m
p6028
aV9tjlnj
p6029
aV9up150
p6030
aV9utu80
p6031
aV9utphi
p6032
aV9u9i6q
p6033
aV9wol3y
p6034
aV9tkhv9
p6035
aV9wa8xm
p6036
aV9vnqh9
p6037
aV9uhxuk
p6038
aV9vefjz
p6039
aV9vi9jx
p6040
aV9ty929
p6041
aV9v7t41
p6042
aV9w9hn5
p6043
aV9vi0zt
p6044
aV9sia73
p6045
aV9uq9ra
p6046
aV9ute8v
p6047
aV9uknav
p6048
aV9svwma
p6049
aV9vmc2z
p6050
aV9untuh
p6051
aV9t4ke4
p6052
aV9vlbto
p6053
aV9shjsb
p6054
aV9sn73f
p6055
aV9tv31d
p6056
aV9wk4rr
p6057
aV9st04r
p6058
aV9vfffp
p6059
aV9vxiw4
p6060
aV9w9xu5
p6061
aV9tuqtz
p6062
aV9t31i6
p6063
aV9uel5u
p6064
aV9u6mct
p6065
aV9tk6d5
p6066
aV9ss3tm
p6067
aV9v3k6o
p6068
aV9w4bg6
p6069
aV9tz0fi
p6070
aV9u4rzf
p6071
aV9sul5u
p6072
aV9sjdw4
p6073
aV9ss06v
p6074
aV9tabiv
p6075
aV9ut2sk
p6076
aV9vj2zd
p6077
aV9ut5al
p6078
aV9vgxqb
p6079
aV9u50hm
p6080
aV9ugu93
p6081
aV9vusk3
p6082
aV9syom5
p6083
aV9vlend
p6084
aV9udy1w
p6085
aV9tjmla
p6086
aV9sjsxt
p6087
aV9tnxza
p6088
aV9w6mv3
p6089
aV9skesq
p6090
aV9v9plu
p6091
aV9uhpe5
p6092
aV9v1bt0
p6093
aV9w97qc
p6094
aV9voh9j
p6095
aV9ufgj3
p6096
aV9wrp1s
p6097
aV9ue7ti
p6098
aV9txilo
p6099
aV9wg9bj
p6100
aV9tv4ru
p6101
aV9tyczt
p6102
aV9td3h9
p6103
aV9w24iu
p6104
aV9tzqjr
p6105
aV9vlmmj
p6106
aV9v0og4
p6107
aV9uzzxi
p6108
aV9shgig
p6109
aV9vcs70
p6110
aV9vun5a
p6111
aV9tyn67
p6112
aV9vut7b
p6113
aV9v49nt
p6114
aV9u41pl
p6115
aV9w8gvh
p6116
aV9vmxnm
p6117
aV9vlp87
p6118
aV9wf6d4
p6119
aV9vydpm
p6120
aV9tlieo
p6121
aV9spqoc
p6122
aV9toeyl
p6123
aV9u65pc
p6124
aV9sqk32
p6125
aV9ta5a0
p6126
aV9sj3r0
p6127
aV9v1ubz
p6128
aV9tbfr2
p6129
aV9u8r2s
p6130
aV9tnuut
p6131
aV9txmvu
p6132
aV9tive8
p6133
aV9vfov2
p6134
aV9t406t
p6135
aV9tqotc
p6136
aV9uv4y9
p6137
aV9ulu8v
p6138
aV9uu850
p6139
aV9tl3lh
p6140
aV9uc7vl
p6141
aV9vai4m
p6142
aV9wifcn
p6143
aV9tsnp0
p6144
aV9w4740
p6145
aV9vuiui
p6146
aV9t34r6
p6147
aV9tks58
p6148
aV9tkv8d
p6149
aV9wk6ch
p6150
aV9vacop
p6151
aV9uyyvb
p6152
aV9suxow
p6153
aV9wkh8i
p6154
aV9vb36k
p6155
aV9ws1b2
p6156
aV9tl06d
p6157
aV9uub06
p6158
aV9sfvaq
p6159
aV9w6fdx
p6160
aV9w5i8m
p6161
aV9vyerd
p6162
aV9v069t
p6163
aV9v5hni
p6164
aV9vajtg
p6165
aV9tydl6
p6166
aV9uhlrb
p6167
aV9vl69s
p6168
aV9vsbiw
p6169
aV9vqbg7
p6170
aV9usnbj
p6171
aV9tdawx
p6172
aV9sgpev
p6173
aV9smwuz
p6174
aV9url39
p6175
aV9ux9ex
p6176
aV9shm2a
p6177
aV9tbvra
p6178
aV9usnb5
p6179
aV9w6v9z
p6180
aV9uyqeh
p6181
aV9uqf24
p6182
aV9upp7e
p6183
aV9t1w5z
p6184
aV9t71dd
p6185
aV9wgq9x
p6186
aV9wgy92
p6187
aV9vqk1j
p6188
aV9szz2g
p6189
aV9tlb5p
p6190
aV9vqwr9
p6191
aV9txjn3
p6192
aV9syrwa
p6193
aV9t25zp
p6194
aV9tlb5j
p6195
aV9vtdm8
p6196
aV9w1fk1
p6197
aV9st67y
p6198
aV9tvfhc
p6199
aV9vtd8j
p6200
aV9tidnf
p6201
aV9t93nl
p6202
aV9uwben
p6203
aV9ur4gx
p6204
aV9tua2k
p6205
aV9soxs3
p6206
aV9sqpt9
p6207
aV9ss90k
p6208
aV9vhkt8
p6209
aV9si0v6
p6210
aV9w5ieh
p6211
aV9tjukw
p6212
aV9sr7dh
p6213
aV9ugy66
p6214
aV9tx9qz
p6215
aV9vzn8g
p6216
aV9w8y2e
p6217
aV9tkryi
p6218
aV9ug6hy
p6219
aV9vzc5u
p6220
aV9ufdxb
p6221
aV9ut7bx
p6222
aV9u8ql7
p6223
aV9voba0
p6224
aV9ts68o
p6225
aV9vb11g
p6226
aV9wnnyz
p6227
aV9si558
p6228
aV9vbn9d
p6229
aV9ry8gb
p6230
aV9spjwq
p6231
aV9tujwc
p6232
aV9t8vfk
p6233
aV9ts573
p6234
aV9s41cm
p6235
aV9ueqss
p6236
aV9tuyov
p6237
aV9sw37m
p6238
aV9vubin
p6239
aV9t6au0
p6240
aV9tw5mi
p6241
aV9vbi67
p6242
aV9tjgq7
p6243
aV9vbk4e
p6244
aV9w3741
p6245
aV9tku1x
p6246
aV9tcksa
p6247
aV9w4f9j
p6248
aV9v4835
p6249
aV9wf5qz
p6250
aV9t56r8
p6251
aV9up5k2
p6252
aV9uf22b
p6253
aV9w72ly
p6254
aV9tkypl
p6255
aV9sp2dv
p6256
aV9vegwy
p6257
aV9tpws8
p6258
aV9t4v6m
p6259
aV9ws5i9
p6260
aV9tn4py
p6261
aV9vvk3a
p6262
aV9ve66c
p6263
aV9so8qi
p6264
aV9v2eso
p6265
aV9wpxgx
p6266
aV9v70r0
p6267
aV9vwj2s
p6268
aV9tlvk8
p6269
aV9v4xug
p6270
aV9vde2c
p6271
aV9toap9
p6272
aV9uph5a
p6273
aV9u7um4
p6274
aV9wsge7
p6275
aV9uh5dk
p6276
aV9vuoba
p6277
aV9ty0ev
p6278
aV9vqmci
p6279
aV9vqjum
p6280
aV9sqi75
p6281
aV9swo2k
p6282
aV9tpzh6
p6283
aV9sisru
p6284
aV9tou19
p6285
aV9u3kqy
p6286
aV9tansr
p6287
aV9u7qqo
p6288
aV9wo4fo
p6289
aV9tgzvv
p6290
aV9v4aoz
p6291
aV9vucfg
p6292
aV9u4eeb
p6293
aV9vtd0r
p6294
aV9ublx7
p6295
aV9v4bkw
p6296
aV9vq9bz
p6297
aV9v65wo
p6298
aV9tk22x
p6299
aV9wqtk1
p6300
aV9tp9rb
p6301
aV9t0mnu
p6302
aV9uqutr
p6303
aV9wt0cr
p6304
aV9vxiil
p6305
aV9st4bu
p6306
aV9st4by
p6307
aV9t9mck
p6308
aV9vavup
p6309
aV9t58tl
p6310
aV9v3eoe
p6311
aV9w3ogc
p6312
aV9snv7u
p6313
aV9tcg5h
p6314
aV9vtway
p6315
aV9ty908
p6316
aV9serbi
p6317
aV9whpt3
p6318
aV9utcjk
p6319
aV9uf3o7
p6320
aV9ujsv8
p6321
aV9u3k9z
p6322
aV9vpk6n
p6323
aV9w58bq
p6324
aV9v0x4b
p6325
aV9v1fj7
p6326
aV9ssw5z
p6327
aV9twbow
p6328
aV9tcoos
p6329
aV9vb484
p6330
aV9vnqfu
p6331
aV9uraox
p6332
aV9t96uy
p6333
aV9uvjts
p6334
aV9tgot3
p6335
aV9v1006
p6336
aV9u2pys
p6337
aV9uptal
p6338
aV9tluz9
p6339
aV9uxkay
p6340
aV9ujkgu
p6341
aV9tgwe4
p6342
aV9u6hix
p6343
aV9ttmlv
p6344
aV9ubugh
p6345
aV9us8b8
p6346
aV9vyeik
p6347
aV9sfadm
p6348
aV9s2dfg
p6349
aV9t4dbi
p6350
aV9s7aux
p6351
aV9wt6s4
p6352
aV9ssain
p6353
aV9ut5cw
p6354
aV9wt3g2
p6355
aV9s6xjr
p6356
aV9urjkb
p6357
aV9t25gb
p6358
aV9w1d70
p6359
aV9wivfm
p6360
aV9w4e9b
p6361
aV9vdsl8
p6362
aV9u704y
p6363
aV9v2oah
p6364
aV9tz6vt
p6365
aV9u751c
p6366
aV9ujw93
p6367
aV9t44yo
p6368
aV9t0qmr
p6369
aV9tv5vd
p6370
aV9vec1v
p6371
aV9wgsln
p6372
aV9vyp1z
p6373
aV9vbg53
p6374
aV9vbg52
p6375
aV9wr70j
p6376
aV9vgqi4
p6377
aV9wsfn2
p6378
aV9uhlo3
p6379
aV9u6x11
p6380
aV9seiyu
p6381
aV9uh929
p6382
aV9tlz5e
p6383
aV9uatot
p6384
aV9sc0rv
p6385
aV9u8oy9
p6386
aV9spk4k
p6387
aV9w6rz7
p6388
aV9s6wbm
p6389
aV9sn3d5
p6390
aV9w9dji
p6391
aV9v6l5d
p6392
aV9wsu4v
p6393
aV9uoysk
p6394
aV9tc6cc
p6395
aV9tjms4
p6396
aV9sp4gi
p6397
aV9u6xn1
p6398
aV9uzzvl
p6399
aV9v4b3s
p6400
aV9tt194
p6401
aV9vmi72
p6402
aV9t2ek4
p6403
aV9s7079
p6404
aV9vlftv
p6405
aV9tothv
p6406
aV9tbdr6
p6407
aV9wkfqu
p6408
aV9vnbjv
p6409
aV9vx1bc
p6410
aV9twaqk
p6411
aV9u7ggy
p6412
aV9vvr94
p6413
aV9u6xny
p6414
aV9tl5xj
p6415
aV9tjupr
p6416
aV9vx9r4
p6417
aV9tioux
p6418
aV9vun7v
p6419
aV9vj6d1
p6420
aV9u3vtu
p6421
aV9t9r04
p6422
aV9texe4
p6423
aV9sgsy1
p6424
aV9wkxkx
p6425
aV9swghg
p6426
aV9sq60k
p6427
aV9v4s43
p6428
aV9wpd3e
p6429
aV9uqyur
p6430
aV9tzpbf
p6431
aV9v22yf
p6432
aV9un8mu
p6433
aV9t1ru7
p6434
aV9vfyvf
p6435
aV9v0a93
p6436
aV9u13dn
p6437
aV9vobzk
p6438
aV9vydv0
p6439
aV9u94l4
p6440
aV9vvg4g
p6441
aV9u534g
p6442
aV9whde6
p6443
aV9tasw1
p6444
aV9u8eog
p6445
aV9toze1
p6446
aV9sjc6q
p6447
aV9vme8v
p6448
aV9tif9f
p6449
aV9w9d1d
p6450
aV9vmcxw
p6451
aV9vx0la
p6452
aV9wez0l
p6453
aV9tq7cx
p6454
aV9srbub
p6455
aV9so65j
p6456
aV9sps6m
p6457
aV9vajvl
p6458
aV9si9z2
p6459
aV9usdnu
p6460
aV9uozvf
p6461
aV9vw4u1
p6462
aV9u4cr0
p6463
aV9w53p2
p6464
aV9snyx0
p6465
aV9vq76m
p6466
aV9t7jkc
p6467
aV9tu2ig
p6468
aV9sp6h1
p6469
aV9v691u
p6470
aV9u854q
p6471
aV9wkcz2
p6472
aV9u7r29
p6473
aV9tw1s5
p6474
aV9v0dox
p6475
aV9tm35y
p6476
aV9ufzt2
p6477
aV9tv87c
p6478
aV9w9kk8
p6479
aV9uibjo
p6480
aV9shmez
p6481
aV9vk9kb
p6482
aV9sjixx
p6483
aV9vgzj9
p6484
aV9u49aj
p6485
aV9w8ggc
p6486
aV9uplzq
p6487
aV9t33xd
p6488
aV9tpsix
p6489
aV9sx9tp
p6490
aV9suqfp
p6491
aV9ulao3
p6492
aV9vjzel
p6493
aV9t2d90
p6494
aV9sz89j
p6495
aV9tz2ab
p6496
aV9t55rz
p6497
aV9t4qfh
p6498
aV9t2anl
p6499
aV9vqkle
p6500
aV9ueohx
p6501
aV9u36z8
p6502
aV9uhydm
p6503
aV9tjumr
p6504
aV9u04kq
p6505
aV9t2d9o
p6506
aV9tt6e4
p6507
aV9v6nnh
p6508
aV9trwm1
p6509
aV9uuomg
p6510
aV9uprty
p6511
aV9vvzr2
p6512
aV9wob05
p6513
aV9uww1b
p6514
aV9trrjn
p6515
aV9u34w8
p6516
aV9uieki
p6517
aV9t2w8p
p6518
aV9sq1pb
p6519
aV9uews7
p6520
aV9tzeu0
p6521
aV9s72i4
p6522
aV9wjm92
p6523
aV9tdaug
p6524
aV9tx6m2
p6525
aV9tqjm4
p6526
aV9wjmba
p6527
aV9vlya8
p6528
aV9szez9
p6529
aV9tnmdv
p6530
aV9szmzy
p6531
aV9wac7j
p6532
aV9tjq62
p6533
aV9uii48
p6534
aV9t3bbg
p6535
aV9u9yp2
p6536
aV9tw6bi
p6537
aV9vr0pj
p6538
aV9vp3rb
p6539
aV9unu5d
p6540
aV9vejma
p6541
aV9tsagy
p6542
aV9s3kpr
p6543
aV9vhd5n
p6544
aV9uqsho
p6545
aV9ug4wi
p6546
aV9upsro
p6547
aV9v06s1
p6548
aV9t1th1
p6549
aV9wrq9v
p6550
aV9to210
p6551
aV9uy6l1
p6552
aV9w2r4u
p6553
aV9vvne1
p6554
aV9vxhhe
p6555
aV9u9xvr
p6556
aV9txzoc
p6557
aV9wmrn1
p6558
aV9v0cz5
p6559
aV9v0hn0
p6560
aV9vet5a
p6561
aV9sisth
p6562
aV9wqorv
p6563
aV9w0wd1
p6564
aV9uqkih
p6565
aV9snvyn
p6566
aV9thc3h
p6567
aV9uesou
p6568
aV9v2eq6
p6569
aV9uquv9
p6570
aV9t0dx3
p6571
aV9w161a
p6572
aV9t1x90
p6573
aV9vr3uv
p6574
aV9vlu2g
p6575
aV9tksnf
p6576
aV9vyxg0
p6577
aV9vzvgu
p6578
aV9tty5k
p6579
aV9ttin3
p6580
aV9vuz24
p6581
aV9uoohq
p6582
aV9uovvj
p6583
aV9t474r
p6584
aV9t41gj
p6585
aV9vlueu
p6586
aV9wopt1
p6587
aV9w61rn
p6588
aV9t0jbz
p6589
aV9thne0
p6590
aV9uk4x7
p6591
aV9vae1r
p6592
aV9t8lj6
p6593
aV9t9v9x
p6594
aV9vlh9u
p6595
aV9t3yk7
p6596
aV9wrzwb
p6597
aV9urqh5
p6598
aV9uhsxm
p6599
aV9tfcto
p6600
aV9s6acx
p6601
aV9w1qjh
p6602
aV9sictb
p6603
aV9vcq2d
p6604
aV9slqpv
p6605
aV9u3xml
p6606
aV9t1uob
p6607
aV9u8dby
p6608
aV9w9gto
p6609
aV9t7ad1
p6610
aV9swqko
p6611
aV9wmyte
p6612
aV9v8vre
p6613
aV9sxztw
p6614
aV9vngce
p6615
aV9wiwba
p6616
aV9u5jax
p6617
aV9u7284
p6618
aV9vrl59
p6619
aV9sxqw7
p6620
aV9valey
p6621
aV9vdhdz
p6622
aV9ss3px
p6623
aV9stvjj
p6624
aV9vd24p
p6625
aV9vwa7t
p6626
aV9sxxfk
p6627
aV9u92eb
p6628
aV9w4490
p6629
aV9vg9k2
p6630
aV9t8k17
p6631
aV9si3dp
p6632
aV9wiq4e
p6633
aV9svxy8
p6634
aV9v4rhv
p6635
aV9vcrn4
p6636
aV9uxzd6
p6637
aV9wqhde
p6638
aV9ujgmz
p6639
aV9uujw1
p6640
aV9w93i0
p6641
aV9sz2vf
p6642
aV9ujdia
p6643
aV9t6l7m
p6644
aV9v6kwu
p6645
aV9sv3ci
p6646
aV9towhl
p6647
aV9u1kuk
p6648
aV9t1wqq
p6649
aV9uu168
p6650
aV9uibqk
p6651
aV9ugxmi
p6652
aV9us34s
p6653
aV9wndrt
p6654
aV9tl6hk
p6655
aV9tvevw
p6656
aV9vyf9r
p6657
aV9s705u
p6658
aV9sz7oc
p6659
aV9v4o85
p6660
aV9vjr0j
p6661
aV9vozxx
p6662
aV9u95lu
p6663
aV9ujx4y
p6664
aV9t07aq
p6665
aV9vektf
p6666
aV9usten
p6667
aV9tncw7
p6668
aV9wiqiw
p6669
aV9u3hh0
p6670
aV9thl33
p6671
aV9s1m8v
p6672
aV9vl5fw
p6673
aV9sogff
p6674
aV9ujhe0
p6675
aV9v35ba
p6676
aV9vok2i
p6677
aV9wftpe
p6678
aV9v2icn
p6679
aV9vmp7d
p6680
aV9vbbir
p6681
aV9s6yz0
p6682
aV9ugp8p
p6683
aV9srwye
p6684
aV9t0gfc
p6685
aV9tsgh0
p6686
aV9v0gpi
p6687
aV9ss4i6
p6688
aV9v4s24
p6689
aV9v32g6
p6690
aV9vzrvv
p6691
aV9sylq1
p6692
aV9spnbf
p6693
aV9vykac
p6694
aV9vacs0
p6695
aV9vx2tz
p6696
aV9tfau4
p6697
aV9uh0o8
p6698
aV9tlxvd
p6699
aV9t9r6r
p6700
aV9tv8bn
p6701
aV9sg8sv
p6702
aV9uz7hw
p6703
aV9u5fj0
p6704
aV9tefbl
p6705
aV9t9fq4
p6706
aV9wrl0s
p6707
aV9u1q4b
p6708
aV9trzq1
p6709
aV9tow01
p6710
aV9u2srm
p6711
aV9ttbks
p6712
aV9v608d
p6713
aV9uvuc5
p6714
aV9vdahh
p6715
aV9u35r8
p6716
aV9t40gh
p6717
aV9tppmu
p6718
aV9vpohq
p6719
aV9w3ac4
p6720
aV9s3t0u
p6721
aV9t063i
p6722
aV9v1z0h
p6723
aV9v3reg
p6724
aV9sofmg
p6725
aV9sj82a
p6726
aV9st9a4
p6727
aV9vkdkf
p6728
aV9tuxl7
p6729
aV9tswkm
p6730
aV9vxff3
p6731
aV9td2f0
p6732
aV9ukcj9
p6733
aV9uskew
p6734
aV9wqbth
p6735
aV9tb5pf
p6736
aV9usi80
p6737
aV9vz3zi
p6738
aV9w1o2p
p6739
aV9txy3w
p6740
aV9ullwu
p6741
aV9t9bmu
p6742
aV9t114h
p6743
aV9vtzsl
p6744
aV9u8hk2
p6745
aV9uopb3
p6746
aV9w6pqd
p6747
aV9v3kz5
p6748
aV9vpi3r
p6749
aV9uyrsl
p6750
aV9wa7r5
p6751
aV9wp42k
p6752
aV9vlv43
p6753
aV9wjlf0
p6754
aV9vvrav
p6755
aV9ujrg4
p6756
aV9uty79
p6757
aV9t8ppw
p6758
aV9tu5et
p6759
aV9wr3l6
p6760
aV9spish
p6761
aV9txi7v
p6762
aV9usy89
p6763
aV9v1nqo
p6764
aV9szy5c
p6765
aV9wg1ss
p6766
aV9toa4b
p6767
aV9sn104
p6768
aV9szy5u
p6769
aV9v8zui
p6770
aV9wnpj2
p6771
aV9w9q8d
p6772
aV9u6c5k
p6773
aV9teaot
p6774
aV9vytyr
p6775
aV9ss943
p6776
aV9s79av
p6777
aV9u8v28
p6778
aV9tojz8
p6779
aV9st0ze
p6780
aV9syae3
p6781
aV9v2w7q
p6782
aV9u4nx1
p6783
aV9w4bqa
p6784
aV9v2w7k
p6785
aV9vlcyz
p6786
aV9w0x0p
p6787
aV9tngt8
p6788
aV9takey
p6789
aV9tpiqh
p6790
aV9s62sc
p6791
aV9s7cg7
p6792
aV9t255w
p6793
aV9w9l57
p6794
aV9urew3
p6795
aV9v4qe4
p6796
aV9uq7u4
p6797
aV9tl0iz
p6798
aV9vqbjv
p6799
aV9u4d5p
p6800
aV9tkekw
p6801
aV9wsw9u
p6802
aV9vaoj5
p6803
aV9take8
p6804
aV9ummn3
p6805
aV9sw9tt
p6806
aV9vu0dm
p6807
aV9uivht
p6808
aV9sq6f4
p6809
aV9shlxp
p6810
aV9u6it9
p6811
aV9tzewu
p6812
aV9u98vn
p6813
aV9vl7av
p6814
aV9ukw4e
p6815
aV9vrr89
p6816
aV9uo7i0
p6817
aV9u8qh4
p6818
aV9w9thk
p6819
aV9vt0b5
p6820
aV9w9hln
p6821
aV9wr34l
p6822
aV9stuji
p6823
aV9tlatv
p6824
aV9w7pr5
p6825
aV9w7rtp
p6826
aV9s6t9e
p6827
aV9tw6dm
p6828
aV9ut2lh
p6829
aV9tuzsz
p6830
aV9w9pl9
p6831
aV9uvaya
p6832
aV9vgman
p6833
aV9vopgy
p6834
aV9uj774
p6835
aV9sfwjg
p6836
aV9u5vgp
p6837
aV9vmy9s
p6838
aV9t0lz3
p6839
aV9vmy9t
p6840
aV9t0tzd
p6841
aV9t4189
p6842
aV9tevz6
p6843
aV9v4nc7
p6844
aV9srt0k
p6845
aV9tys85
p6846
aV9w3mfm
p6847
aV9sxraq
p6848
aV9tbkmm
p6849
aV9vbd3j
p6850
aV9tlvgr
p6851
aV9vxhf2
p6852
aV9wa2va
p6853
aV9w4tga
p6854
aV9van47
p6855
aV9u5kc7
p6856
aV9wpg1p
p6857
aV9srrk7
p6858
aV9v12yx
p6859
aV9thn06
p6860
aV9tp66t
p6861
aV9v079d
p6862
aV9uxoi0
p6863
aV9ug2cc
p6864
aV9tf6xe
p6865
aV9syu8p
p6866
aV9vm2xr
p6867
aV9ssvdg
p6868
aV9ssh1v
p6869
aV9tu634
p6870
aV9vmgu0
p6871
aV9vpgmi
p6872
aV9s1cc5
p6873
aV9sy48e
p6874
aV9w9ipp
p6875
aV9van4m
p6876
aV9vsy05
p6877
aV9u6xug
p6878
aV9t5w7l
p6879
aV9wt7rr
p6880
aV9ss9lr
p6881
aV9vxh1w
p6882
aV9wrm1n
p6883
aV9syz3p
p6884
aV9uhqp9
p6885
aV9uixbw
p6886
aV9tkagz
p6887
aV9s1qxa
p6888
aV9u358w
p6889
aV9st025
p6890
aV9v9l9q
p6891
aV9uzbqg
p6892
aV9ty1rr
p6893
aV9w1r43
p6894
aV9uthre
p6895
aV9w810j
p6896
aV9vwgnq
p6897
aV9skdcl
p6898
aV9sshge
p6899
aV9uyy4c
p6900
aV9urm5h
p6901
aV9v6rsr
p6902
aV9u4ow8
p6903
aV9vftie
p6904
aV9vla0z
p6905
aV9t96qx
p6906
aV9vyyaf
p6907
aV9v2kep
p6908
aV9sypdj
p6909
aV9u9r5h
p6910
aV9wgd93
p6911
aV9u4skg
p6912
aV9w2lkv
p6913
aV9w5zdl
p6914
aV9wrd08
p6915
aV9t1fpk
p6916
aV9ttmph
p6917
aV9uxs8j
p6918
aV9vtfzy
p6919
aV9vg7rx
p6920
aV9t3rys
p6921
aV9vpr2r
p6922
aV9wfb5w
p6923
aV9u55fg
p6924
aV9ucehm
p6925
aV9vdtnj
p6926
aV9tferv
p6927
aV9uyv1c
p6928
aV9v9d5p
p6929
aV9tz50r
p6930
aV9v0elw
p6931
aV9tehld
p6932
aV9wo1sn
p6933
aV9tnbsj
p6934
aV9w5yz7
p6935
aV9v1iy6
p6936
aV9uqxbn
p6937
aV9s5gld
p6938
aV9sq3qo
p6939
aV9vob24
p6940
aV9ss55k
p6941
aV9unh4y
p6942
aV9tda99
p6943
aV9vwd79
p6944
aV9vv54s
p6945
aV9vln5f
p6946
aV9vw1nu
p6947
aV9vkfnh
p6948
aV9t4hhq
p6949
aV9t09mm
p6950
aV9urda6
p6951
aV9steeu
p6952
aV9ui3wg
p6953
aV9txz2m
p6954
aV9tznmp
p6955
aV9tb91r
p6956
aV9s4o75
p6957
aV9w00ix
p6958
aV9spe2s
p6959
aV9s752i
p6960
aV9uroe2
p6961
aV9v1unk
p6962
aV9wfmeg
p6963
aV9v94ce
p6964
aV9s5vp4
p6965
aV9uu4kk
p6966
aV9tnqgt
p6967
aV9uhj2d
p6968
aV9tvqtt
p6969
aV9vabm8
p6970
aV9wpwv1
p6971
aV9sj8xc
p6972
aV9t296p
p6973
aV9vyphv
p6974
aV9wofow
p6975
aV9sqrir
p6976
aV9unmlo
p6977
aV9w23dh
p6978
aV9vn9p1
p6979
aV9w1an6
p6980
aV9tv7xb
p6981
aV9sg5jk
p6982
aV9tncua
p6983
aV9tjcbl
p6984
aV9s5shj
p6985
aV9wt902
p6986
aV9sjqff
p6987
aV9tlcmb
p6988
aV9ve0bb
p6989
aV9sm2ke
p6990
aV9uis4w
p6991
aV9uft6x
p6992
aV9vd4lg
p6993
aV9t4514
p6994
aV9vgf3s
p6995
aV9szzit
p6996
aV9wp1xa
p6997
aV9t1ry8
p6998
aV9t19w6
p6999
aV9wf5h7
p7000
aV9uf67a
p7001
aV9usehg
p7002
aV9ssxah
p7003
aV9tmoix
p7004
aV9v2ilt
p7005
aV9vbpq8
p7006
aV9ukrw6
p7007
aV9w3fxx
p7008
aV9uqjdx
p7009
aV9tt9hl
p7010
aV9uit4z
p7011
aV9to175
p7012
aV9uit4i
p7013
aV9u5fly
p7014
aV9t451l
p7015
aV9sz56e
p7016
aV9wlqh9
p7017
aV9sipj6
p7018
aV9wstdy
p7019
aV9wg7jq
p7020
aV9v0ful
p7021
aV9vuncf
p7022
aV9t4rl7
p7023
aV9v0fuz
p7024
aV9tn4a0
p7025
aV9tyolv
p7026
aV9vejiq
p7027
aV9vvldj
p7028
aV9tnwsh
p7029
aV9s7a9m
p7030
aV9s7a9o
p7031
aV9szi77
p7032
aV9v5co0
p7033
aV9txtce
p7034
aV9tzy8l
p7035
aV9t3hc6
p7036
aV9uip5n
p7037
aV9uhqyi
p7038
aV9u6tvs
p7039
aV9skpjm
p7040
aV9rx35m
p7041
aV9vmnfx
p7042
aV9wrtxe
p7043
aV9s5leq
p7044
aV9szib6
p7045
aV9u6dwr
p7046
aV9t1y1a
p7047
aV9t9yub
p7048
aV9tzbi9
p7049
aV9sz7su
p7050
aV9vvt96
p7051
aV9t94pg
p7052
aV9szzc9
p7053
aV9tuf30
p7054
aV9t8jtl
p7055
aV9tc7h1
p7056
aV9tv16h
p7057
aV9vp411
p7058
aV9tt1mz
p7059
aV9spcgz
p7060
aV9vc22f
p7061
aV9vp83d
p7062
aV9ulzzi
p7063
aV9v118o
p7064
aV9sqii0
p7065
aV9uj8yy
p7066
aV9wrrnq
p7067
aV9s6tga
p7068
aV9u024s
p7069
aV9ujixv
p7070
aV9vl2yz
p7071
aV9v44io
p7072
aV9vyzb2
p7073
aV9t6uf6
p7074
aV9u024i
p7075
aV9tvcpf
p7076
aV9wpbb4
p7077
aV9vzc3p
p7078
aV9ta2r8
p7079
aV9wnw8g
p7080
aV9th1d5
p7081
aV9w7iia
p7082
aV9u3t5q
p7083
aV9spdof
p7084
aV9wq2q0
p7085
aV9shu6q
p7086
aV9vaw3h
p7087
aV9u1j8z
p7088
aV9ugmyq
p7089
aV9vuxq4
p7090
aV9uowv6
p7091
aV9t96j1
p7092
aV9u5sqx
p7093
aV9ukebf
p7094
aV9whmn5
p7095
aV9s61am
p7096
aV9vub4y
p7097
aV9u9yty
p7098
aV9uj57x
p7099
aV9vrfwv
p7100
aV9wke5s
p7101
aV9tlhdq
p7102
aV9uhzzw
p7103
aV9uowvz
p7104
aV9s1ib1
p7105
aV9vaoh6
p7106
aV9u0g6o
p7107
aV9tphiu
p7108
aV9vpwv7
p7109
aV9u3z78
p7110
aV9vvoef
p7111
aV9tgzdk
p7112
aV9wt15s
p7113
aV9sogg5
p7114
aV9vg0j6
p7115
aV9u62dg
p7116
aV9t25bl
p7117
aV9tlwip
p7118
aV9tj25l
p7119
aV9vxhdd
p7120
aV9uhe09
p7121
aV9u4yg9
p7122
aV9vskpe
p7123
aV9wompe
p7124
aV9woh2r
p7125
aV9vah8a
p7126
aV9vu4fm
p7127
aV9wpld7
p7128
aV9t9tr6
p7129
aV9w9sd1
p7130
aV9t22wp
p7131
aV9tly7t
p7132
aV9w1fg5
p7133
aV9w7bya
p7134
aV9uqv2q
p7135
aV9tvc8h
p7136
aV9v0eqs
p7137
aV9tqja0
p7138
aV9vwbsa
p7139
aV9u69qo
p7140
aV9wqovg
p7141
aV9uimgr
p7142
aV9whr0f
p7143
aV9t4myp
p7144
aV9v1inv
p7145
aV9twmli
p7146
aV9uio0c
p7147
aV9v5o3g
p7148
aV9vkyuj
p7149
aV9timzf
p7150
aV9vbi8l
p7151
aV9u1s9c
p7152
aV9tsv5y
p7153
aV9sfwh5
p7154
aV9tvd3b
p7155
aV9t2q2f
p7156
aV9ujxda
p7157
aV9wadhy
p7158
aV9vv01h
p7159
aV9t2q2h
p7160
aV9ufl5x
p7161
aV9vt7e0
p7162
aV9t3z3b
p7163
aV9w9wxq
p7164
aV9vdh5a
p7165
aV9u60ky
p7166
aV9sv91r
p7167
aV9uosaw
p7168
aV9tcma5
p7169
aV9tyian
p7170
aV9wae2u
p7171
aV9vxg40
p7172
aV9tbssy
p7173
aV9t42dd
p7174
aV9w6jcn
p7175
aV9sj73q
p7176
aV9vdv7l
p7177
aV9sms7g
p7178
aV9v5vcs
p7179
aV9umado
p7180
aV9vgplq
p7181
aV9u31ye
p7182
aV9tgnx2
p7183
aV9t27k4
p7184
aV9scrib
p7185
aV9vblhb
p7186
aV9tr5tj
p7187
aV9ttijn
p7188
aV9vyxcg
p7189
aV9sidme
p7190
aV9tlcrt
p7191
aV9ttchs
p7192
aV9vyd76
p7193
aV9w029q
p7194
aV9wps9u
p7195
aV9s3gpr
p7196
aV9tuk7w
p7197
aV9wjj6e
p7198
aV9ss2pp
p7199
aV9vee22
p7200
aV9wg3h8
p7201
aV9vusqf
p7202
aV9vw0j7
p7203
aV9sq05h
p7204
aV9wnv6z
p7205
aV9vrb36
p7206
aV9uzgkn
p7207
aV9wg3hf
p7208
aV9szpz8
p7209
aV9tqj92
p7210
aV9w7cn8
p7211
aV9upj8y
p7212
aV9vom69
p7213
aV9vz7eg
p7214
aV9u64w3
p7215
aV9wrqu0
p7216
aV9t2s5h
p7217
aV9shpc8
p7218
aV9tu1bc
p7219
aV9szvlv
p7220
aV9v1p0d
p7221
aV9w5kbu
p7222
aV9v1t11
p7223
aV9thuib
p7224
aV9szcot
p7225
aV9vf5i3
p7226
aV9tkfxp
p7227
aV9wqr3m
p7228
aV9vnpbr
p7229
aV9w8zmm
p7230
aV9vf2ed
p7231
aV9vejvs
p7232
aV9tkwvh
p7233
aV9v9p1f
p7234
aV9uo9w6
p7235
aV9wsssg
p7236
aV9va6hq
p7237
aV9uomh6
p7238
aV9vzsus
p7239
aV9woso0
p7240
aV9rxdd5
p7241
aV9tovzl
p7242
aV9w2mes
p7243
aV9v1tj0
p7244
aV9vsf5f
p7245
aV9tz527
p7246
aV9t1af0
p7247
aV9t9ma3
p7248
aV9v4ma7
p7249
aV9w7xtz
p7250
aV9tn8fs
p7251
aV9tigk3
p7252
aV9w6clm
p7253
aV9vw53a
p7254
aV9wq99w
p7255
aV9w7lvd
p7256
aV9vudbd
p7257
aV9rwq5g
p7258
aV9u0jr7
p7259
aV9wofib
p7260
aV9utir6
p7261
aV9twao7
p7262
aV9wraee
p7263
aV9wskx3
p7264
aV9t0391
p7265
aV9vobfk
p7266
aV9wp0xw
p7267
aV9u02no
p7268
aV9ueg5v
p7269
aV9wj9gm
p7270
aV9wozbx
p7271
aV9sjewp
p7272
aV9uize2
p7273
aV9vhy7a
p7274
aV9tzn8j
p7275
aV9upsed
p7276
aV9tgfek
p7277
aV9vvdrh
p7278
aV9soh3u
p7279
aV9si41z
p7280
aV9v553y
p7281
aV9s5vvz
p7282
aV9u4ph1
p7283
aV9vfhtn
p7284
aV9vjvhn
p7285
aV9vw61k
p7286
aV9v53fs
p7287
aV9vb7eo
p7288
aV9vuk8f
p7289
aV9uskaw
p7290
aV9v6g4i
p7291
aV9td14a
p7292
aV9tv8fj
p7293
aV9vz5hp
p7294
aV9wrj0v
p7295
aV9tk8mz
p7296
aV9v5ljx
p7297
aV9u42jq
p7298
aV9v4i2x
p7299
aV9vtam3
p7300
aV9v22ct
p7301
aV9tb6a2
p7302
aV9vdd4x
p7303
aV9wa7ar
p7304
aV9vw28l
p7305
aV9uqq69
p7306
aV9u46zb
p7307
aV9vvziu
p7308
aV9ts858
p7309
aV9tor9b
p7310
aV9soouk
p7311
aV9tl3td
p7312
aV9uftcp
p7313
aV9u2qpf
p7314
aV9uluuq
p7315
aV9v4j9g
p7316
aV9vr1t9
p7317
aV9swm39
p7318
aV9ugv6c
p7319
aV9w7qqm
p7320
aV9vt5lm
p7321
aV9tta0y
p7322
aV9uyq67
p7323
aV9wmi82
p7324
aV9vw7g0
p7325
aV9tvu5o
p7326
aV9w48st
p7327
aV9vm4ik
p7328
aV9uwd8l
p7329
aV9tki3j
p7330
aV9v42og
p7331
aV9u7g5d
p7332
aV9twc4p
p7333
aV9vkdox
p7334
aV9syt6i
p7335
aV9so8ft
p7336
aV9v1qdv
p7337
aV9uoflh
p7338
aV9ta6it
p7339
aV9sknr3
p7340
aV9vpfrl
p7341
aV9u4ffe
p7342
aV9t4rbj
p7343
aV9u4xi7
p7344
aV9txbv9
p7345
aV9wqu0h
p7346
aV9tpto2
p7347
aV9wsn3w
p7348
aV9sejdu
p7349
aV9vbnyc
p7350
aV9semnk
p7351
aV9t13cw
p7352
aV9s751y
p7353
aV9vxgej
p7354
aV9uu72a
p7355
aV9u2udw
p7356
aV9wgakt
p7357
aV9syt60
p7358
aV9upbrt
p7359
aV9v0xus
p7360
aV9w1355
p7361
aV9t1v42
p7362
aV9udxp7
p7363
aV9uf1vz
p7364
aV9vdp5v
p7365
aV9wsmq6
p7366
aV9sn14m
p7367
aV9t584z
p7368
aV9wr9f6
p7369
aV9t0jbn
p7370
aV9utwlx
p7371
aV9s7cjc
p7372
aV9t3qr6
p7373
aV9v9o73
p7374
aV9uuc9a
p7375
aV9t8zbn
p7376
aV9ws2rr
p7377
aV9ups4y
p7378
aV9vmvu9
p7379
aV9uynk0
p7380
aV9sseh7
p7381
aV9uqzei
p7382
aV9va5fw
p7383
aV9uvnoi
p7384
aV9uypqw
p7385
aV9tmkwt
p7386
aV9uusbh
p7387
aV9spiw0
p7388
aV9wpr5f
p7389
aV9wsfa7
p7390
aV9tq1s1
p7391
aV9t30n2
p7392
aV9u57w8
p7393
aV9u5vme
p7394
aV9sk7cl
p7395
aV9tmzqc
p7396
aV9sz5kl
p7397
aV9t0ut0
p7398
aV9tcwtl
p7399
aV9vmt0j
p7400
aV9vcuut
p7401
aV9vkxk7
p7402
aV9uotb1
p7403
aV9mzxz7
p7404
aV9vtt4t
p7405
aV9uj55l
p7406
aV9uxvih
p7407
aV9wm9qz
p7408
aV9s7bhj
p7409
aV9simth
p7410
aV9vqcv1
p7411
aV9twzcv
p7412
aV9v5inh
p7413
aV9uotbk
p7414
aV9uzgvg
p7415
aV9w87fi
p7416
aV9s5k1q
p7417
aV9wqb79
p7418
aV9t8mcw
p7419
aV9vh28f
p7420
aV9t2w22
p7421
aV9wt1n2
p7422
aV9ta51t
p7423
aV9t57jt
p7424
aV9u2mw7
p7425
aV9tdvf8
p7426
aV9u6lf2
p7427
aV9tlwkc
p7428
aV9ursio
p7429
aV9vfsb4
p7430
aV9vqudb
p7431
aV9sf9kh
p7432
aV9vqcvp
p7433
aV9v129m
p7434
aV9urx7g
p7435
aV9vwbqe
p7436
aV9u2wae
p7437
aV9s748g
p7438
aV9wprmi
p7439
aV9sy875
p7440
aV9u9nbv
p7441
aV9uyspk
p7442
aV9tqrif
p7443
aV9wp3g5
p7444
aV9wshaa
p7445
aV9vnzwh
p7446
aV9ucs90
p7447
aV9vrpih
p7448
aV9spsdn
p7449
aV9tlohk
p7450
aV9vndu4
p7451
aV9wr387
p7452
aV9sxywg
p7453
aV9wr65k
p7454
aV9sywa0
p7455
aV9twhhm
p7456
aV9vw7zm
p7457
aV9vzetz
p7458
aV9tvum5
p7459
aV9smde1
p7460
aV9v8lk1
p7461
aV9ujxff
p7462
aV9vmn0j
p7463
aV9tmjpa
p7464
aV9vgvxf
p7465
aV9sulw0
p7466
aV9uv0z2
p7467
aV9sqeda
p7468
aV9vuy77
p7469
aV9w5t72
p7470
aV9sjvoq
p7471
aV9uvcs9
p7472
aV9v0g2z
p7473
aV9toobo
p7474
aV9w9a3v
p7475
aV9u1zyg
p7476
aV9u9pyj
p7477
aV9uixf5
p7478
aV9sk304
p7479
aV9v9myi
p7480
aV9wpts8
p7481
aV9u9z52
p7482
aV9uafj2
p7483
aV9t6w5g
p7484
aV9sq2nr
p7485
aV9sv9lv
p7486
aV9u1m1u
p7487
aV9w9faw
p7488
aV9vh3r4
p7489
aV9uqkpm
p7490
aV9ux8z7
p7491
aV9uqaqf
p7492
aV9uddx7
p7493
aV9ttudt
p7494
aV9vm2it
p7495
aV9td6er
p7496
aV9u18ux
p7497
aV9tpns8
p7498
aV9u5myg
p7499
aV9vm8vb
p7500
aV9vr0w5
p7501
aV9uef2e
p7502
aV9u8t9k
p7503
aV9wrawk
p7504
aV9t7h1h
p7505
aV9tdjj1
p7506
aV9u8t9f
p7507
aV9uddxn
p7508
aV9tus1e
p7509
aV9spkti
p7510
aV9u5nvo
p7511
aV9sybyl
p7512
aV9ve2gz
p7513
aV9usgyc
p7514
aV9te9pj
p7515
aV9wjeov
p7516
aV9ulhpg
p7517
aV9s6z33
p7518
aV9ssb36
p7519
aV9sgmiu
p7520
aV9wr267
p7521
aV9w5zxk
p7522
aV9t4twq
p7523
aV9t98ta
p7524
aV9tbetr
p7525
aV9w7bj1
p7526
aV9v3ph9
p7527
aV9v0wto
p7528
aV9u2avb
p7529
aV9whlog
p7530
aV9vfqm2
p7531
aV9v4ibd
p7532
aV9tmuxa
p7533
aV9wj4un
p7534
aV9u4q40
p7535
aV9w14u5
p7536
aV9uydxe
p7537
aV9vpmkn
p7538
aV9tdtgj
p7539
aV9u8d9r
p7540
aV9wm18o
p7541
aV9sjpaa
p7542
aV9vugb6
p7543
aV9vbgxa
p7544
aV9vocua
p7545
aV9v3pho
p7546
aV9u4q4h
p7547
aV9txa7s
p7548
aV9t0swb
p7549
aV9vn2fp
p7550
aV9uvbli
p7551
aV9uh54g
p7552
aV9v4mc5
p7553
aV9w5z0w
p7554
aV9ux82u
p7555
aV9v1mki
p7556
aV9w84dq
p7557
aV9vbh6o
p7558
aV9tnq68
p7559
aV9u6ztz
p7560
aV9sl5rp
p7561
aV9t6902
p7562
aV9ucnrj
p7563
aV9wg44z
p7564
aV9tseiv
p7565
aV9stymh
p7566
aV9tdz2s
p7567
aV9t9pen
p7568
aV9um4yd
p7569
aV9t0pym
p7570
aV9us90f
p7571
aV9sygen
p7572
aV9tc9kd
p7573
aV9wkkah
p7574
aV9sn35o
p7575
aV9wimgp
p7576
aV9v2vnf
p7577
aV9wgeam
p7578
aV9u41zr
p7579
aV9us90s
p7580
aV9ug27w
p7581
aV9voe2g
p7582
aV9w3687
p7583
aV9t3k9k
p7584
aV9u7rlx
p7585
aV9vw67l
p7586
aV9uhi5h
p7587
aV9ur05v
p7588
aV9u7xzj
p7589
aV9t0ieq
p7590
aV9vemlm
p7591
aV9vfkvu
p7592
aV9vgalx
p7593
aV9u13ll
p7594
aV9u20r5
p7595
aV9vmn47
p7596
aV9vaakz
p7597
aV9uow2y
p7598
aV9tt9t4
p7599
aV9st6u9
p7600
aV9sysza
p7601
aV9urmiu
p7602
aV9tzzdo
p7603
aV9wgu7l
p7604
aV9vwero
p7605
aV9ul1ed
p7606
aV9t3v6w
p7607
aV9vykka
p7608
aV9t05ul
p7609
aV9syfau
p7610
aV9wjycv
p7611
aV9v226y
p7612
aV9uq77g
p7613
aV9vyq0e
p7614
aV9v5thv
p7615
aV9uz5xf
p7616
aV9to35v
p7617
aV9ugpnw
p7618
aV9uadjz
p7619
aV9tz66m
p7620
aV9twc2a
p7621
aV9uro0z
p7622
aV9wroiv
p7623
aV9v9twv
p7624
aV9tibvl
p7625
aV9t1ts7
p7626
aV9tqs1d
p7627
aV9v92ut
p7628
aV9vcr86
p7629
aV9uu252
p7630
aV9tkchw
p7631
aV9vccag
p7632
aV9vpe3x
p7633
aV9sja89
p7634
aV9vofnv
p7635
aV9szv6y
p7636
aV9u21tu
p7637
aV9vt5gj
p7638
aV9uhgjl
p7639
aV9wq668
p7640
aV9uqyj7
p7641
aV9tkk3r
p7642
aV9ws3vy
p7643
aV9v0wy4
p7644
aV9s6mex
p7645
aV9vyudm
p7646
aV9t2wxc
p7647
aV9w3qcx
p7648
aV9v63nh
p7649
aV9u5522
p7650
aV9sg3eg
p7651
aV9t13ma
p7652
aV9soubd
p7653
aV9w2q5d
p7654
aV9vme07
p7655
aV9spiuk
p7656
aV9vy6x2
p7657
aV9t0l87
p7658
aV9spiuz
p7659
aV9ukotd
p7660
aV9wqckm
p7661
aV9vqkdb
p7662
aV9t23p6
p7663
aV9ut61y
p7664
aV9wj23u
p7665
aV9t3ppo
p7666
aV9u8ubk
p7667
aV9tuae2
p7668
aV9vntw8
p7669
aV9vni3y
p7670
aV9u04cr
p7671
aV9t8nah
p7672
aV9w34an
p7673
aV9uonrp
p7674
aV9sbadq
p7675
aV9vpv8t
p7676
aV9tvej6
p7677
aV9sic49
p7678
aV9tr8ox
p7679
aV9wib8c
p7680
aV9vpj60
p7681
aV9utr6e
p7682
aV9t23pf
p7683
aV9wgxqp
p7684
aV9t0vnv
p7685
aV9t96f7
p7686
aV9ujse1
p7687
aV9v14ai
p7688
aV9t81j6
p7689
aV9vvfxx
p7690
aV9wnfsb
p7691
aV9w5mww
p7692
aV9vqct4
p7693
aV9wrked
p7694
aV9vpylp
p7695
aV9vx07u
p7696
aV9w2afc
p7697
aV9tsh1z
p7698
aV9u6ord
p7699
aV9tnyc2
p7700
aV9wjmju
p7701
aV9vsliy
p7702
aV9vdxnm
p7703
aV9uoq2e
p7704
aV9tzooh
p7705
aV9vzg30
p7706
aV9sqfky
p7707
aV9upmbm
p7708
aV9sqnk4
p7709
aV9szuu2
p7710
aV9uiy8j
p7711
aV9tlwet
p7712
aV9vwhm7
p7713
aV9vurvy
p7714
aV9tye68
p7715
aV9tlh5q
p7716
aV9vaf2b
p7717
aV9vl8qt
p7718
aV9s6p90
p7719
aV9v38in
p7720
aV9uv6jj
p7721
aV9vy7gi
p7722
aV9u7zwe
p7723
aV9w6tqw
p7724
aV9urhn9
p7725
aV9u7bfu
p7726
aV9szjld
p7727
aV9w5eg2
p7728
aV9ut7h5
p7729
aV9tvvca
p7730
aV9t7udu
p7731
aV9uv34s
p7732
aV9tzdax
p7733
aV9w3s1e
p7734
aV9swo8y
p7735
aV9w1snp
p7736
aV9w7ptb
p7737
aV9ueeiy
p7738
aV9wj1vb
p7739
aV9tmmdn
p7740
aV9w4wqn
p7741
aV9vkyq8
p7742
aV9vpb9s
p7743
aV9stlw1
p7744
aV9wpe13
p7745
aV9u38c6
p7746
aV9vd2iq
p7747
aV9w92z9
p7748
aV9vmo60
p7749
aV9so5cy
p7750
aV9ttezq
p7751
aV9tmcdh
p7752
aV9tddb0
p7753
aV9u5x5g
p7754
aV9spbjy
p7755
aV9s6j5n
p7756
aV9vgou5
p7757
aV9tsbc8
p7758
aV9w6r4j
p7759
aV9s6s40
p7760
aV9sbll5
p7761
aV9tomsu
p7762
aV9sfg9x
p7763
aV9s3uw8
p7764
aV9v1f74
p7765
aV9w8gfe
p7766
aV9u3l3s
p7767
aV9vj006
p7768
aV9sudc9
p7769
aV9spfzg
p7770
aV9wee5m
p7771
aV9ug73o
p7772
aV9uhkav
p7773
aV9vblln
p7774
aV9u7m6g
p7775
aV9w8jd2
p7776
aV9ttcli
p7777
aV9vqiv2
p7778
aV9w6o9h
p7779
aV9vcabs
p7780
aV9sj2iu
p7781
aV9v32r0
p7782
aV9ve8k5
p7783
aV9tnpvp
p7784
aV9vxcqo
p7785
aV9u53jl
p7786
aV9tdp56
p7787
aV9uhrlv
p7788
aV9tm65v
p7789
aV9sowml
p7790
aV9tahgn
p7791
aV9t02ob
p7792
aV9uugfu
p7793
aV9sr3yp
p7794
aV9uq84e
p7795
aV9sxlzl
p7796
aV9tq227
p7797
aV9vpaqb
p7798
aV9un3sy
p7799
aV9upyti
p7800
aV9u3puw
p7801
aV9t8uuy
p7802
aV9vdhll
p7803
aV9tus3h
p7804
aV9to1i9
p7805
aV9v621z
p7806
aV9vqda0
p7807
aV9t9s1k
p7808
aV9tv685
p7809
aV9vw0ny
p7810
aV9vaeu3
p7811
aV9ty14o
p7812
aV9v5z89
p7813
aV9u71cy
p7814
aV9tc5ql
p7815
aV9tvfa7
p7816
aV9v783e
p7817
aV9tz56w
p7818
aV9srqk0
p7819
aV9tb14r
p7820
aV9tf2j1
p7821
aV9spnil
p7822
aV9tl6hb
p7823
aV9v5uq6
p7824
aV9t09g8
p7825
aV9vjgha
p7826
aV9s6vnl
p7827
aV9wotzb
p7828
aV9umqer
p7829
aV9wjcsk
p7830
aV9tz5ai
p7831
aV9w6g9r
p7832
aV9utoos
p7833
aV9v1jpp
p7834
aV9u8djb
p7835
aV9uet0c
p7836
aV9se6fw
p7837
aV9vx71t
p7838
aV9vldzx
p7839
aV9uouee
p7840
aV9vln38
p7841
aV9wpduv
p7842
aV9v0dze
p7843
aV9thay6
p7844
aV9vg9c4
p7845
aV9vw3cc
p7846
aV9veend
p7847
aV9vkexv
p7848
aV9wrfhm
p7849
aV9stcez
p7850
aV9w6chn
p7851
aV9uel1p
p7852
aV9tdiv3
p7853
aV9v4tzf
p7854
aV9txuz2
p7855
aV9tef4v
p7856
aV9tlsv7
p7857
aV9vysi5
p7858
aV9wk2mp
p7859
aV9vu8km
p7860
aV9w0y6a
p7861
aV9u57nx
p7862
aV9uqpts
p7863
aV9wsv5s
p7864
aV9ssmwl
p7865
aV9wkc8e
p7866
aV9sn40f
p7867
aV9tteg9
p7868
aV9w5z68
p7869
aV9sva6o
p7870
aV9uwjfj
p7871
aV9t0kej
p7872
aV9w8o92
p7873
aV9vuszl
p7874
aV9tipqp
p7875
aV9wrwco
p7876
aV9uia7k
p7877
aV9sq1et
p7878
aV9uh9yd
p7879
aV9uw9ku
p7880
aV9vfylt
p7881
aV9vplbu
p7882
aV9v0iun
p7883
aV9vsxwi
p7884
aV9t4gt2
p7885
aV9td45a
p7886
aV9to332
p7887
aV9uj07f
p7888
aV9u9sf9
p7889
aV9u2szg
p7890
aV9szuhw
p7891
aV9wa4qb
p7892
aV9ve03y
p7893
aV9ss4ar
p7894
aV9us5ga
p7895
aV9vnhvp
p7896
aV9v07dp
p7897
aV9v07dv
p7898
aV9t1js3
p7899
aV9udkvk
p7900
aV9vkmy8
p7901
aV9tu7l5
p7902
aV9uo0xk
p7903
aV9vxzzr
p7904
aV9t267l
p7905
aV9sdjef
p7906
aV9sppcy
p7907
aV9v3ydh
p7908
aV9u4ch7
p7909
aV9wpg1i
p7910
aV9v21gg
p7911
aV9t010i
p7912
aV9txbrd
p7913
aV9v7rky
p7914
aV9tvkzk
p7915
aV9spoax
p7916
aV9tlwyb
p7917
aV9spv5o
p7918
aV9ss7ar
p7919
aV9v69z5
p7920
aV9vbb7d
p7921
aV9uq2wv
p7922
aV9vneru
p7923
aV9tlowp
p7924
aV9tyq3n
p7925
aV9ue3df
p7926
aV9ufsr8
p7927
aV9wq131
p7928
aV9s1lt5
p7929
aV9t8ik4
p7930
aV9v3kb9
p7931
aV9sa76k
p7932
aV9vl6vs
p7933
aV9unsl8
p7934
aV9s4wx7
p7935
aV9snd1x
p7936
aV9vvs2l
p7937
aV9vvsg7
p7938
aV9v1yxq
p7939
aV9v2nlv
p7940
aV9spv55
p7941
aV9v6t9p
p7942
aV9woxoq
p7943
aV9vjzke
p7944
aV9stcxc
p7945
aV9vaaqm
p7946
aV9uf1rh
p7947
aV9v60hk
p7948
aV9tjx4p
p7949
aV9vmg5h
p7950
aV9u6cht
p7951
aV9v2c9z
p7952
aV9szzil
p7953
aV9t82z1
p7954
aV9u3ekd
p7955
aV9v74bi
p7956
aV9ut581
p7957
aV9tln8t
p7958
aV9vbgud
p7959
aV9tndfu
p7960
aV9tw2x2
p7961
aV9snx86
p7962
aV9utzsl
p7963
aV9v0o34
p7964
aV9tmpxv
p7965
aV9va5by
p7966
aV9vrnk5
p7967
aV9tbipn
p7968
aV9ufb8e
p7969
aV9uexlq
p7970
aV9vfdhq
p7971
aV9uyrea
p7972
aV9v2uec
p7973
aV9u1nba
p7974
aV9u3j95
p7975
aV9rxsi2
p7976
aV9u9udh
p7977
aV9sxhsa
p7978
aV9sttm6
p7979
aV9v17wi
p7980
aV9v68ie
p7981
aV9wpjt8
p7982
aV9tzo6a
p7983
aV9ttrm6
p7984
aV9viuc6
p7985
aV9vvjye
p7986
aV9wswt2
p7987
aV9vq4gn
p7988
aV9s4bsp
p7989
aV9vftrt
p7990
aV9v1agu
p7991
aV9w9byo
p7992
aV9ug93a
p7993
aV9slabg
p7994
aV9v25cp
p7995
aV9ugzfw
p7996
aV9wjmtf
p7997
aV9vsk5o
p7998
aV9t5vbc
p7999
aV9sgtel
p8000
aV9vy45h
p8001
aV9ujsgj
p8002
aV9vs2z5
p8003
aV9wa63o
p8004
aV9sezcd
p8005
aV9uxvm2
p8006
aV9w8gqj
p8007
aV9vqczp
p8008
aV9t5vb1
p8009
aV9uhsjw
p8010
aV9vvaug
p8011
aV9tw5y7
p8012
aV9ukz1b
p8013
aV9so72d
p8014
aV9t5nri
p8015
aV9vxf6c
p8016
aV9vzh0t
p8017
aV9vvfkm
p8018
aV9uzi30
p8019
aV9t8frr
p8020
aV9skmlw
p8021
aV9spf8h
p8022
aV9uee0u
p8023
aV9v3pw2
p8024
aV9so1y9
p8025
aV9soknx
p8026
aV9u85f8
p8027
aV9t0trb
p8028
aV9teb5a
p8029
aV9tjacc
p8030
aV9wqpi1
p8031
aV9sl9ws
p8032
aV9sryvn
p8033
aV9vz9eg
p8034
aV9w6gwe
p8035
aV9wiazl
p8036
aV9spttm
p8037
aV9wa3l5
p8038
aV9w7qvq
p8039
aV9t288b
p8040
aV9sfzyh
p8041
aV9t3fxd
p8042
aV9wpsqf
p8043
aV9shnmi
p8044
aV9twmb7
p8045
aV9szkvd
p8046
aV9upnur
p8047
aV9s5gw7
p8048
aV9s6zol
p8049
aV9vpnc9
p8050
aV9vxvmy
p8051
aV9w0hc8
p8052
aV9vlcau
p8053
aV9sp1zo
p8054
aV9twp6n
p8055
aV9ua75u
p8056
aV9voiry
p8057
aV9v13k2
p8058
aV9wrnu4
p8059
aV9w5f8d
p8060
aV9uq4h7
p8061
aV9u7pct
p8062
aV9smjam
p8063
aV9st3zl
p8064
aV9tju4f
p8065
aV9vcymq
p8066
aV9t0jhs
p8067
aV9vcvi9
p8068
aV9tdnrp
p8069
aV9srafe
p8070
aV9sif25
p8071
aV9u522l
p8072
aV9thi7u
p8073
aV9uwem4
p8074
aV9uzfmo
p8075
aV9u2a2s
p8076
aV9w9fet
p8077
aV9t1olb
p8078
aV9vcvif
p8079
aV9wkdy8
p8080
aV9upsxr
p8081
aV9stfpy
p8082
aV9sln2l
p8083
aV9t2bso
p8084
aV9tqj3d
p8085
aV9u28is
p8086
aV9v3srf
p8087
aV9sydtf
p8088
aV9wps7m
p8089
aV9vtm73
p8090
aV9sssb1
p8091
aV9vnza5
p8092
aV9soyee
p8093
aV9u9jbj
p8094
aV9uhocp
p8095
aV9w0l4u
p8096
aV9vw1ax
p8097
aV9wkik0
p8098
aV9tkvvg
p8099
aV9sq5gq
p8100
aV9vwk3q
p8101
aV9w5d7k
p8102
aV9u92ox
p8103
aV9ve2cc
p8104
aV9srhny
p8105
aV9uxewq
p8106
aV9uruu0
p8107
aV9wabb4
p8108
aV9t98pr
p8109
aV9tfe1p
p8110
aV9wk42n
p8111
aV9toqdo
p8112
aV9welfv
p8113
aV9ts9js
p8114
aV9u74id
p8115
aV9t85ud
p8116
aV9t3ovp
p8117
aV9t1rdk
p8118
atp8119
Rp8120
sb.